---
triple:          'arm64-apple-darwin'
binary-path:     '/Users/topaz/topaz-build-agent/_work/14/.conan2/p/b/aiengfbfecc7fdf148/b/build/Release/aiengine/libaiengine.dylib'
relocations:
  - { offsetInCU: 0x52, offset: 0x52, size: 0x8, addend: 0x0, symName: __ZL12backendTypes, symObjAddr: 0x69D38, symBinAddr: 0x85038, symSize: 0x0 }
  - { offsetInCU: 0xC847, offset: 0xC847, size: 0x8, addend: 0x0, symName: __ZNSt3__120__throw_length_errorB8ue170006EPKc, symObjAddr: 0x960, symBinAddr: 0x84C0, symSize: 0x50 }
  - { offsetInCU: 0xF54D, offset: 0xF54D, size: 0x8, addend: 0x0, symName: __ZN8aiengine7TypeForERKNSt3__112basic_stringIcNS0_11char_traitsIcEENS0_9allocatorIcEEEE, symObjAddr: 0x30, symBinAddr: 0x7B90, symSize: 0x828 }
  - { offsetInCU: 0xF63B, offset: 0xF63B, size: 0x8, addend: 0x0, symName: __ZN8aiengine9MBNameForENS_18MODEL_BACKEND_TYPEE, symObjAddr: 0x858, symBinAddr: 0x83B8, symSize: 0xEC }
  - { offsetInCU: 0xFC6B, offset: 0xFC6B, size: 0x8, addend: 0x0, symName: __ZN8aiengine11AllBackendsEv, symObjAddr: 0x944, symBinAddr: 0x84A4, symSize: 0x8 }
  - { offsetInCU: 0xFC7D, offset: 0xFC7D, size: 0x8, addend: 0x0, symName: __ZN8aiengine11AllBackendsEv, symObjAddr: 0x944, symBinAddr: 0x84A4, symSize: 0x8 }
  - { offsetInCU: 0x12E38, offset: 0x12E38, size: 0x8, addend: 0x0, symName: __Z8aieGetUsv, symObjAddr: 0x0, symBinAddr: 0x7B60, symSize: 0x30 }
  - { offsetInCU: 0x131F6, offset: 0x131F6, size: 0x8, addend: 0x0, symName: __ZNKSt3__112basic_stringIcNS_11char_traitsIcEENS_9allocatorIcEEE20__throw_length_errorB8ue170006Ev, symObjAddr: 0x94C, symBinAddr: 0x84AC, symSize: 0x14 }
  - { offsetInCU: 0x13220, offset: 0x13220, size: 0x8, addend: 0x0, symName: __ZNSt3__120__throw_length_errorB8ue170006EPKc, symObjAddr: 0x960, symBinAddr: 0x84C0, symSize: 0x50 }
  - { offsetInCU: 0x1322B, offset: 0x1322B, size: 0x8, addend: 0x0, symName: __ZNSt12length_errorC1B8ue170006EPKc, symObjAddr: 0x9B0, symBinAddr: 0x8510, symSize: 0x24 }
  - { offsetInCU: 0x68, offset: 0x1333B, size: 0x8, addend: 0x0, symName: __ZN7httplib6detail13base64_encodeERKNSt3__112basic_stringIcNS1_11char_traitsIcEENS1_9allocatorIcEEEE, symObjAddr: 0x2B944, symBinAddr: 0x34058, symSize: 0x168 }
  - { offsetInCU: 0x391, offset: 0x13664, size: 0x8, addend: 0x0, symName: __ZN7httplib6detail21write_content_chunkedIZNS_10ClientImpl27write_content_with_providerERNS_6StreamERKNS_7RequestERNS_5ErrorEEUlvE_NS0_10compressorEEEbS4_RKNSt3__18functionIFbmmRNS_8DataSinkEEEERKT_RT0_S9_, symObjAddr: 0x2BB78, symBinAddr: 0x3428C, symSize: 0x2FC }
  - { offsetInCU: 0xFFC, offset: 0x142CF, size: 0x8, addend: 0x0, symName: __ZN7httplib6detail22parse_www_authenticateERKNS_8ResponseERNSt3__13mapINS4_12basic_stringIcNS4_11char_traitsIcEENS4_9allocatorIcEEEESB_NS4_4lessISB_EENS9_INS4_4pairIKSB_SB_EEEEEEb, symObjAddr: 0x26D84, symBinAddr: 0x2F498, symSize: 0xAF4 }
  - { offsetInCU: 0x1028, offset: 0x142FB, size: 0x8, addend: 0x0, symName: __ZZN7httplib6detail22parse_www_authenticateERKNS_8ResponseERNSt3__13mapINS4_12basic_stringIcNS4_11char_traitsIcEENS4_9allocatorIcEEEESB_NS4_4lessISB_EENS9_INS4_4pairIKSB_SB_EEEEEEbE2re, symObjAddr: 0x45718, symBinAddr: 0x84F80, symSize: 0x0 }
  - { offsetInCU: 0x50E2, offset: 0x183B5, size: 0x8, addend: 0x0, symName: __ZN7httplib6detail13write_contentIZNS_10ClientImpl27write_content_with_providerERNS_6StreamERKNS_7RequestERNS_5ErrorEEUlvE_EEbS4_RKNSt3__18functionIFbmmRNS_8DataSinkEEEEmmT_S9_, symObjAddr: 0x2BE74, symBinAddr: 0x34588, symSize: 0x23C }
  - { offsetInCU: 0x57C8, offset: 0x18A9B, size: 0x8, addend: 0x0, symName: __ZN7httplib6detail24prepare_content_receiverINS_8ResponseEZNS0_12read_contentIS2_EEbRNS_6StreamERT_mRiNSt3__18functionIFbyyEEENSA_IFbPKcmyyEEEbEUlRKSG_E_EEbS7_S8_SG_bT0_, symObjAddr: 0x2EC70, symBinAddr: 0x37384, symSize: 0x364 }
  - { offsetInCU: 0x6C96, offset: 0x19F69, size: 0x8, addend: 0x0, symName: __ZN7httplib6detail5splitEPKcS2_cNSt3__18functionIFvS2_S2_EEE, symObjAddr: 0x209CC, symBinAddr: 0x290E0, symSize: 0x26C }
  - { offsetInCU: 0x6EC6, offset: 0x1A199, size: 0x8, addend: 0x0, symName: __ZN7httplib10ClientImplD2Ev, symObjAddr: 0x20C38, symBinAddr: 0x2934C, symSize: 0x2B8 }
  - { offsetInCU: 0x7210, offset: 0x1A4E3, size: 0x8, addend: 0x0, symName: __ZN7httplib6detail20create_client_socketERKNSt3__112basic_stringIcNS1_11char_traitsIcEENS1_9allocatorIcEEEES9_iibNS1_8functionIFviEEEllllllS9_RNS_5ErrorE, symObjAddr: 0x21930, symBinAddr: 0x2A044, symSize: 0x1B8 }
  - { offsetInCU: 0x75C2, offset: 0x1A895, size: 0x8, addend: 0x0, symName: __ZN7httplib6detail13create_socketIZNS0_20create_client_socketERKNSt3__112basic_stringIcNS2_11char_traitsIcEENS2_9allocatorIcEEEESA_iibNS2_8functionIFviEEEllllllSA_RNS_5ErrorEEUliR8addrinfoE_EEiSA_SA_iiibSD_T_, symObjAddr: 0x21AE8, symBinAddr: 0x2A1FC, symSize: 0x3B8 }
  - { offsetInCU: 0x81AA, offset: 0x1B47D, size: 0x8, addend: 0x0, symName: __ZN7httplib6detail5if2ipEiRKNSt3__112basic_stringIcNS1_11char_traitsIcEENS1_9allocatorIcEEEE, symObjAddr: 0x221EC, symBinAddr: 0x2A900, symSize: 0x2B0 }
  - { offsetInCU: 0x906A, offset: 0x1C33D, size: 0x8, addend: 0x0, symName: __ZN7httplib6detail26wait_until_socket_is_readyEill, symObjAddr: 0x2249C, symBinAddr: 0x2ABB0, symSize: 0x204 }
  - { offsetInCU: 0x9504, offset: 0x1C7D7, size: 0x8, addend: 0x0, symName: __ZN7httplib6detail15is_socket_aliveEi, symObjAddr: 0x22CB0, symBinAddr: 0x2B3C4, symSize: 0x12C }
  - { offsetInCU: 0x994B, offset: 0x1CC1E, size: 0x8, addend: 0x0, symName: __ZN7httplib6detail7ssl_newIZNS_9SSLClient14initialize_sslERNS_10ClientImpl6SocketERNS_5ErrorEEUlP6ssl_stE_ZNS2_14initialize_sslES5_S7_EUlS9_E0_EES9_iP10ssl_ctx_stRNSt3__15mutexET_T0_, symObjAddr: 0x34230, symBinAddr: 0x3C944, symSize: 0x164 }
  - { offsetInCU: 0x9DA6, offset: 0x1D079, size: 0x8, addend: 0x0, symName: __ZN7httplib6detail12read_headersERNS_6StreamERNSt3__18multimapINS3_12basic_stringIcNS3_11char_traitsIcEENS3_9allocatorIcEEEESA_NS0_2ciENS8_INS3_4pairIKSA_SA_EEEEEE, symObjAddr: 0x29C6C, symBinAddr: 0x32380, symSize: 0x1E0 }
  - { offsetInCU: 0xA346, offset: 0x1D619, size: 0x8, addend: 0x0, symName: __ZN7httplib6detail12read_contentINS_8ResponseEEEbRNS_6StreamERT_mRiNSt3__18functionIFbyyEEENS9_IFbPKcmyyEEEb, symObjAddr: 0x29E4C, symBinAddr: 0x32560, symSize: 0x158 }
  - { offsetInCU: 0xA8AB, offset: 0x1DB7E, size: 0x8, addend: 0x0, symName: __ZN7httplib6detail10encode_urlERKNSt3__112basic_stringIcNS1_11char_traitsIcEENS1_9allocatorIcEEEE, symObjAddr: 0x2A298, symBinAddr: 0x329AC, symSize: 0x1B8 }
  - { offsetInCU: 0xAD43, offset: 0x1E016, size: 0x8, addend: 0x0, symName: __ZN7httplib6detail12parse_headerIZNS0_12read_headersERNS_6StreamERNSt3__18multimapINS4_12basic_stringIcNS4_11char_traitsIcEENS4_9allocatorIcEEEESB_NS0_2ciENS9_INS4_4pairIKSB_SB_EEEEEEEUlOSB_SJ_E_EEbPKcSM_T_, symObjAddr: 0x2DD20, symBinAddr: 0x36434, symSize: 0x53C }
  - { offsetInCU: 0xC1B4, offset: 0x1F487, size: 0x8, addend: 0x0, symName: __ZN7httplib6detail10decode_urlERKNSt3__112basic_stringIcNS1_11char_traitsIcEENS1_9allocatorIcEEEEb, symObjAddr: 0x2E25C, symBinAddr: 0x36970, symSize: 0x5F8 }
  - { offsetInCU: 0xCA9E, offset: 0x1FD71, size: 0x8, addend: 0x0, symName: __ZN7httplib6detail20read_content_chunkedINS_8ResponseEEEbRNS_6StreamERT_NSt3__18functionIFbPKcmyyEEE, symObjAddr: 0x2F6B0, symBinAddr: 0x37DC4, symSize: 0x4C4 }
  - { offsetInCU: 0xD791, offset: 0x20A64, size: 0x8, addend: 0x0, symName: __ZN7httplib6detail12parse_headerIZNS0_20read_content_chunkedINS_8ResponseEEEbRNS_6StreamERT_NSt3__18functionIFbPKcmyyEEEEUlONS8_12basic_stringIcNS8_11char_traitsIcEENS8_9allocatorIcEEEESK_E_EEbSB_SB_S6_, symObjAddr: 0x2FE94, symBinAddr: 0x385A8, symSize: 0x548 }
  - { offsetInCU: 0xEBD0, offset: 0x21EA3, size: 0x8, addend: 0x0, symName: __ZN7httplib6detail13random_stringEm, symObjAddr: 0x335D4, symBinAddr: 0x3BCE8, symSize: 0x100 }
  - { offsetInCU: 0xF038, offset: 0x2230B, size: 0x8, addend: 0x0, symName: __ZN7httplib6detail33make_digest_authentication_headerERKNS_7RequestERKNSt3__13mapINS4_12basic_stringIcNS4_11char_traitsIcEENS4_9allocatorIcEEEESB_NS4_4lessISB_EENS9_INS4_4pairIKSB_SB_EEEEEEmRSF_SL_SL_b, symObjAddr: 0x31034, symBinAddr: 0x39748, symSize: 0x25A0 }
  - { offsetInCU: 0x1EDA2, offset: 0x32075, size: 0x8, addend: 0x0, symName: __ZN7httplib6detail7SHA_256ERKNSt3__112basic_stringIcNS1_11char_traitsIcEENS1_9allocatorIcEEEE, symObjAddr: 0x33768, symBinAddr: 0x3BE7C, symSize: 0x30 }
  - { offsetInCU: 0x1EDFB, offset: 0x320CE, size: 0x8, addend: 0x0, symName: __ZN7httplib6detail14message_digestERKNSt3__112basic_stringIcNS1_11char_traitsIcEENS1_9allocatorIcEEEEPK9evp_md_st, symObjAddr: 0x33ADC, symBinAddr: 0x3C1F0, symSize: 0x2F4 }
  - { offsetInCU: 0x1F440, offset: 0x32713, size: 0x8, addend: 0x0, symName: __ZN7httplib6detail7SHA_512ERKNSt3__112basic_stringIcNS1_11char_traitsIcEENS1_9allocatorIcEEEE, symObjAddr: 0x33798, symBinAddr: 0x3BEAC, symSize: 0x30 }
  - { offsetInCU: 0x1F499, offset: 0x3276C, size: 0x8, addend: 0x0, symName: __ZN7httplib6detail3MD5ERKNSt3__112basic_stringIcNS1_11char_traitsIcEENS1_9allocatorIcEEEE, symObjAddr: 0x337C8, symBinAddr: 0x3BEDC, symSize: 0x30 }
  - { offsetInCU: 0x1F563, offset: 0x32836, size: 0x8, addend: 0x0, symName: __ZN7httplib6detail26load_system_certs_on_appleEP13x509_store_st, symObjAddr: 0x347D0, symBinAddr: 0x3CEE4, symSize: 0xDC }
  - { offsetInCU: 0x1F87C, offset: 0x32B4F, size: 0x8, addend: 0x0, symName: __ZN7httplib6detail28retrieve_certs_from_keychainERNSt3__110unique_ptrIK9__CFArrayPFvPKvEEE, symObjAddr: 0x348B8, symBinAddr: 0x3CFCC, symSize: 0x170 }
  - { offsetInCU: 0x1FA76, offset: 0x32D49, size: 0x8, addend: 0x0, symName: __ZN7httplib6detail23add_certs_to_x509_storeEPK9__CFArrayP13x509_store_st, symObjAddr: 0x34A28, symBinAddr: 0x3D13C, symSize: 0x130 }
  - { offsetInCU: 0x1FD36, offset: 0x33009, size: 0x8, addend: 0x0, symName: __ZN7httplib6detail21cf_object_ptr_deleterEPKv, symObjAddr: 0x348AC, symBinAddr: 0x3CFC0, symSize: 0xC }
  - { offsetInCU: 0x1FD7C, offset: 0x3304F, size: 0x8, addend: 0x0, symName: __ZN7httplib6detail8redirectINS_10ClientImplEEEbRT_RNS_7RequestERNS_8ResponseERKNSt3__112basic_stringIcNS9_11char_traitsIcEENS9_9allocatorIcEEEESH_RNS_5ErrorE, symObjAddr: 0x39E0C, symBinAddr: 0x42520, symSize: 0x2A8 }
  - { offsetInCU: 0x2075F, offset: 0x33A32, size: 0x8, addend: 0x0, symName: __ZN7httplib6detail8redirectINS_9SSLClientEEEbRT_RNS_7RequestERNS_8ResponseERKNSt3__112basic_stringIcNS9_11char_traitsIcEENS9_9allocatorIcEEEESH_RNS_5ErrorE, symObjAddr: 0x3A350, symBinAddr: 0x42A64, symSize: 0x2A8 }
  - { offsetInCU: 0x2412B, offset: 0x373FE, size: 0x8, addend: 0x0, symName: __ZN7httplib9to_stringENS_5ErrorE, symObjAddr: 0x1BBC, symBinAddr: 0xA358, symSize: 0x324 }
  - { offsetInCU: 0x2683B, offset: 0x39B0E, size: 0x8, addend: 0x0, symName: __ZN7httplib32make_basic_authentication_headerERKNSt3__112basic_stringIcNS0_11char_traitsIcEENS0_9allocatorIcEEEES8_b, symObjAddr: 0x2A008, symBinAddr: 0x3271C, symSize: 0x290 }
  - { offsetInCU: 0x27AA5, offset: 0x3AD78, size: 0x8, addend: 0x0, symName: __ZN7aiutils6Logger9__pLoggerE, symObjAddr: 0x45620, symBinAddr: 0x84E88, symSize: 0x0 }
  - { offsetInCU: 0x49905, offset: 0x5CBD8, size: 0x8, addend: 0x0, symName: __ZNSt3__119piecewise_constructE, symObjAddr: 0x3F3EC, symBinAddr: 0x7A04C, symSize: 0x0 }
  - { offsetInCU: 0x5E114, offset: 0x713E7, size: 0x8, addend: 0x0, symName: __ZNSt3__1lsB8ue170006IcNS_11char_traitsIcEEEERNS_13basic_ostreamIT_T0_EES7_RKNS_9__iom_t10IS4_EE, symObjAddr: 0x24D8, symBinAddr: 0xAC74, symSize: 0x194 }
  - { offsetInCU: 0x74174, offset: 0x87447, size: 0x8, addend: 0x0, symName: __ZNSt3__124__put_character_sequenceB8ue170006IcNS_11char_traitsIcEEEERNS_13basic_ostreamIT_T0_EES7_PKS4_m, symObjAddr: 0x3AFB4, symBinAddr: 0x436C8, symSize: 0x164 }
  - { offsetInCU: 0x77336, offset: 0x8A609, size: 0x8, addend: 0x0, symName: __ZNSt3__115__quoted_outputB8ue170006IcNS_11char_traitsIcEEEERNS_13basic_ostreamIT_T0_EES7_PKS4_S9_S4_S4_, symObjAddr: 0x3B4FC, symBinAddr: 0x43C10, symSize: 0x104 }
  - { offsetInCU: 0x7871D, offset: 0x8B9F0, size: 0x8, addend: 0x0, symName: __ZNSt3__1lsB8ue170006IcNS_11char_traitsIcEEEERNS_13basic_ostreamIT_T0_EES7_NS_11__thread_idE, symObjAddr: 0x2280, symBinAddr: 0xAA1C, symSize: 0x258 }
  - { offsetInCU: 0x7C2EB, offset: 0x8F5BE, size: 0x8, addend: 0x0, symName: __ZNSt3__116__throw_bad_castB8ue170006Ev, symObjAddr: 0x5618, symBinAddr: 0xDD2C, symSize: 0x28 }
  - { offsetInCU: 0x7D4A7, offset: 0x9077A, size: 0x8, addend: 0x0, symName: __ZNSt3__125__throw_bad_function_callB8ue170006Ev, symObjAddr: 0xB8E4, symBinAddr: 0x13FF8, symSize: 0x34 }
  - { offsetInCU: 0x7E8CB, offset: 0x91B9E, size: 0x8, addend: 0x0, symName: __ZNSt3__127__tree_balance_after_insertB8ue170006IPNS_16__tree_node_baseIPvEEEEvT_S5_, symObjAddr: 0xC760, symBinAddr: 0x14E74, symSize: 0x1B4 }
  - { offsetInCU: 0x7F035, offset: 0x92308, size: 0x8, addend: 0x0, symName: __ZNSt3__113__tree_removeB8ue170006IPNS_16__tree_node_baseIPvEEEEvT_S5_, symObjAddr: 0xD218, symBinAddr: 0x1592C, symSize: 0x3C4 }
  - { offsetInCU: 0x7FE64, offset: 0x93137, size: 0x8, addend: 0x0, symName: __ZNSt3__119__throw_regex_errorB8ue170006ILNS_15regex_constants10error_typeE17EEEvv, symObjAddr: 0x147F4, symBinAddr: 0x1CF08, symSize: 0x4C }
  - { offsetInCU: 0x80DD9, offset: 0x940AC, size: 0x8, addend: 0x0, symName: __ZNSt3__119__throw_regex_errorB8ue170006ILNS_15regex_constants10error_typeE14EEEvv, symObjAddr: 0x15034, symBinAddr: 0x1D748, symSize: 0x4C }
  - { offsetInCU: 0x80FE1, offset: 0x942B4, size: 0x8, addend: 0x0, symName: __ZNSt3__119__throw_regex_errorB8ue170006ILNS_15regex_constants10error_typeE15EEEvv, symObjAddr: 0x1CD98, symBinAddr: 0x254AC, symSize: 0x4C }
  - { offsetInCU: 0x812F4, offset: 0x945C7, size: 0x8, addend: 0x0, symName: __ZNSt3__119__throw_regex_errorB8ue170006ILNS_15regex_constants10error_typeE6EEEvv, symObjAddr: 0x15DFC, symBinAddr: 0x1E510, symSize: 0x4C }
  - { offsetInCU: 0x8149C, offset: 0x9476F, size: 0x8, addend: 0x0, symName: __ZNSt3__119__throw_regex_errorB8ue170006ILNS_15regex_constants10error_typeE11EEEvv, symObjAddr: 0x1752C, symBinAddr: 0x1FC40, symSize: 0x4C }
  - { offsetInCU: 0x814DF, offset: 0x947B2, size: 0x8, addend: 0x0, symName: __ZNSt3__119__throw_regex_errorB8ue170006ILNS_15regex_constants10error_typeE8EEEvv, symObjAddr: 0x1C74C, symBinAddr: 0x24E60, symSize: 0x4C }
  - { offsetInCU: 0x81504, offset: 0x947D7, size: 0x8, addend: 0x0, symName: __ZNSt3__119__throw_regex_errorB8ue170006ILNS_15regex_constants10error_typeE7EEEvv, symObjAddr: 0x1C798, symBinAddr: 0x24EAC, symSize: 0x4C }
  - { offsetInCU: 0x8160B, offset: 0x948DE, size: 0x8, addend: 0x0, symName: __ZNSt3__119__throw_regex_errorB8ue170006ILNS_15regex_constants10error_typeE12EEEvv, symObjAddr: 0x16B10, symBinAddr: 0x1F224, symSize: 0x4C }
  - { offsetInCU: 0x81630, offset: 0x94903, size: 0x8, addend: 0x0, symName: __ZNSt3__119__throw_regex_errorB8ue170006ILNS_15regex_constants10error_typeE16EEEvv, symObjAddr: 0x16B5C, symBinAddr: 0x1F270, symSize: 0x4C }
  - { offsetInCU: 0x81FAB, offset: 0x9527E, size: 0x8, addend: 0x0, symName: __ZNSt3__119__throw_regex_errorB8ue170006ILNS_15regex_constants10error_typeE4EEEvv, symObjAddr: 0x17DA8, symBinAddr: 0x204BC, symSize: 0x4C }
  - { offsetInCU: 0x81FD0, offset: 0x952A3, size: 0x8, addend: 0x0, symName: __ZNSt3__119__throw_regex_errorB8ue170006ILNS_15regex_constants10error_typeE3EEEvv, symObjAddr: 0x17670, symBinAddr: 0x1FD84, symSize: 0x4C }
  - { offsetInCU: 0x81FF5, offset: 0x952C8, size: 0x8, addend: 0x0, symName: __ZNSt3__119__throw_regex_errorB8ue170006ILNS_15regex_constants10error_typeE5EEEvv, symObjAddr: 0x19E24, symBinAddr: 0x22538, symSize: 0x4C }
  - { offsetInCU: 0x82973, offset: 0x95C46, size: 0x8, addend: 0x0, symName: __ZNSt3__119__throw_regex_errorB8ue170006ILNS_15regex_constants10error_typeE2EEEvv, symObjAddr: 0x1BABC, symBinAddr: 0x241D0, symSize: 0x4C }
  - { offsetInCU: 0x82998, offset: 0x95C6B, size: 0x8, addend: 0x0, symName: __ZNSt3__119__throw_regex_errorB8ue170006ILNS_15regex_constants10error_typeE1EEEvv, symObjAddr: 0x1B3B4, symBinAddr: 0x23AC8, symSize: 0x4C }
  - { offsetInCU: 0x829F9, offset: 0x95CCC, size: 0x8, addend: 0x0, symName: __ZNSt3__119__throw_regex_errorB8ue170006ILNS_15regex_constants10error_typeE9EEEvv, symObjAddr: 0x1C25C, symBinAddr: 0x24970, symSize: 0x4C }
  - { offsetInCU: 0x845F2, offset: 0x978C5, size: 0x8, addend: 0x0, symName: __ZNSt3__120__throw_out_of_rangeB8ue170006EPKc, symObjAddr: 0x202B8, symBinAddr: 0x289CC, symSize: 0x50 }
  - { offsetInCU: 0x8B502, offset: 0x9E7D5, size: 0x8, addend: 0x0, symName: __ZNSt3__117__call_once_proxyB8ue170006INS_5tupleIJOZN7httplib9SSLClient10load_certsEvEUlvE_EEEEEvPv, symObjAddr: 0x346DC, symBinAddr: 0x3CDF0, symSize: 0xC }
  - { offsetInCU: 0x8B541, offset: 0x9E814, size: 0x8, addend: 0x0, symName: __ZNSt3__117__call_once_proxyB8ue170006INS_5tupleIJOZN7httplib9SSLClient10load_certsEvEUlvE_EEEEEvPv, symObjAddr: 0x346DC, symBinAddr: 0x3CDF0, symSize: 0xC }
  - { offsetInCU: 0x8B561, offset: 0x9E834, size: 0x8, addend: 0x0, symName: __ZNSt3__117__call_once_proxyB8ue170006INS_5tupleIJOZN7httplib9SSLClient10load_certsEvEUlvE_EEEEEvPv, symObjAddr: 0x346DC, symBinAddr: 0x3CDF0, symSize: 0xC }
  - { offsetInCU: 0x8CC0D, offset: 0x9FEE0, size: 0x8, addend: 0x0, symName: __ZNSt3__116__pad_and_outputB8ue170006IcNS_11char_traitsIcEEEENS_19ostreambuf_iteratorIT_T0_EES6_PKS4_S8_S8_RNS_8ios_baseES4_, symObjAddr: 0x3B118, symBinAddr: 0x4382C, symSize: 0x194 }
  - { offsetInCU: 0x918B9, offset: 0xA4B8C, size: 0x8, addend: 0x0, symName: __ZSt28__throw_bad_array_new_lengthB8ue170006v, symObjAddr: 0x2FC0, symBinAddr: 0xB6D4, symSize: 0x28 }
  - { offsetInCU: 0x946E6, offset: 0xA79B9, size: 0x8, addend: 0x0, symName: __ZN8nlohmann16json_abi_v3_11_26detail9dtoa_impl6grisu2IdEEvPcRiS5_T_, symObjAddr: 0x130B0, symBinAddr: 0x1B7C4, symSize: 0x1E4 }
  - { offsetInCU: 0x94DE8, offset: 0xA80BB, size: 0x8, addend: 0x0, symName: __ZN8nlohmann16json_abi_v3_11_26detail9dtoa_impl16grisu2_digit_genEPcRiS4_NS2_5diyfpES5_S5_, symObjAddr: 0x13294, symBinAddr: 0x1B9A8, symSize: 0x2CC }
  - { offsetInCU: 0x956F5, offset: 0xA89C8, size: 0x8, addend: 0x0, symName: __ZN8nlohmann16json_abi_v3_11_26detail9from_jsonINS0_10basic_jsonINSt3__13mapENS4_6vectorENS4_12basic_stringIcNS4_11char_traitsIcEENS4_9allocatorIcEEEEbxydSA_NS0_14adl_serializerENS6_IhNSA_IhEEEEEEEEvRKT_RNSH_8string_tE, symObjAddr: 0x13560, symBinAddr: 0x1BC74, symSize: 0xE0 }
  - { offsetInCU: 0x9592C, offset: 0xA8BFF, size: 0x8, addend: 0x0, symName: __ZN8nlohmann16json_abi_v3_11_26detail9from_jsonINS0_10basic_jsonINSt3__13mapENS4_6vectorENS4_12basic_stringIcNS4_11char_traitsIcEENS4_9allocatorIcEEEEbxydSA_NS0_14adl_serializerENS6_IhNSA_IhEEEEEEiLi0EEEvRKT_RT0_, symObjAddr: 0x136C4, symBinAddr: 0x1BDD8, symSize: 0x13C }
  - { offsetInCU: 0x95CA7, offset: 0xA8F7A, size: 0x8, addend: 0x0, symName: __ZN8nlohmann16json_abi_v3_11_26detail6concatINSt3__112basic_stringIcNS3_11char_traitsIcEENS3_9allocatorIcEEEEJRA25_KcPSA_EEET_DpOT0_, symObjAddr: 0xD080, symBinAddr: 0x15794, symSize: 0x84 }
  - { offsetInCU: 0x96299, offset: 0xA956C, size: 0x8, addend: 0x0, symName: __ZN8nlohmann16json_abi_v3_11_26detail6concatINSt3__112basic_stringIcNS3_11char_traitsIcEENS3_9allocatorIcEEEEJS9_S9_RKS9_EEET_DpOT0_, symObjAddr: 0x45A4, symBinAddr: 0xCCB8, symSize: 0x100 }
  - { offsetInCU: 0x96B4A, offset: 0xA9E1D, size: 0x8, addend: 0x0, symName: __ZN8nlohmann16json_abi_v3_11_26detail6concatINSt3__112basic_stringIcNS3_11char_traitsIcEENS3_9allocatorIcEEEEJRA17_KcRKS9_cS9_RA3_SA_EEET_DpOT0_, symObjAddr: 0x46A4, symBinAddr: 0xCDB8, symSize: 0x128 }
  - { offsetInCU: 0x97A71, offset: 0xAAD44, size: 0x8, addend: 0x0, symName: __ZN8nlohmann16json_abi_v3_11_26detail6concatINSt3__112basic_stringIcNS3_11char_traitsIcEENS3_9allocatorIcEEEEJRA26_KcS9_cEEET_DpOT0_, symObjAddr: 0xB2E4, symBinAddr: 0x139F8, symSize: 0xB4 }
  - { offsetInCU: 0x97E1E, offset: 0xAB0F1, size: 0x8, addend: 0x0, symName: __ZN8nlohmann16json_abi_v3_11_26detail6concatINSt3__112basic_stringIcNS3_11char_traitsIcEENS3_9allocatorIcEEEEJS9_RA12_KcS9_RA3_SA_S9_RKS9_EEET_DpOT0_, symObjAddr: 0xEEFC, symBinAddr: 0x17610, symSize: 0x190 }
  - { offsetInCU: 0x988B9, offset: 0xABB8C, size: 0x8, addend: 0x0, symName: __ZN8nlohmann16json_abi_v3_11_26detail6concatINSt3__112basic_stringIcNS3_11char_traitsIcEENS3_9allocatorIcEEEEJPKcRA15_SA_S9_cEEET_DpOT0_, symObjAddr: 0xF280, symBinAddr: 0x17994, symSize: 0xE0 }
  - { offsetInCU: 0x98CEB, offset: 0xABFBE, size: 0x8, addend: 0x0, symName: __ZN8nlohmann16json_abi_v3_11_26detail6concatINSt3__112basic_stringIcNS3_11char_traitsIcEENS3_9allocatorIcEEEEJRA24_KcS9_EEET_DpOT0_, symObjAddr: 0xB844, symBinAddr: 0x13F58, symSize: 0xA0 }
  - { offsetInCU: 0x9909D, offset: 0xAC370, size: 0x8, addend: 0x0, symName: __ZN8nlohmann16json_abi_v3_11_26detail6concatINSt3__112basic_stringIcNS3_11char_traitsIcEENS3_9allocatorIcEEEEJRA23_KcS9_EEET_DpOT0_, symObjAddr: 0xE128, symBinAddr: 0x1683C, symSize: 0xA0 }
  - { offsetInCU: 0x99C91, offset: 0xACF64, size: 0x8, addend: 0x0, symName: __ZN8nlohmann16json_abi_v3_11_26detail6concatINSt3__112basic_stringIcNS3_11char_traitsIcEENS3_9allocatorIcEEEEJRA10_KcS9_SC_S9_EEET_DpOT0_, symObjAddr: 0xF174, symBinAddr: 0x17888, symSize: 0x10C }
  - { offsetInCU: 0x9A581, offset: 0xAD854, size: 0x8, addend: 0x0, symName: __ZN8nlohmann16json_abi_v3_11_26detail8to_charsIdEEPcS3_PKcT_, symObjAddr: 0x12E44, symBinAddr: 0x1B558, symSize: 0x26C }
  - { offsetInCU: 0x9A6BC, offset: 0xAD98F, size: 0x8, addend: 0x0, symName: __ZN8nlohmann16json_abi_v3_11_26detail6concatINSt3__112basic_stringIcNS3_11char_traitsIcEENS3_9allocatorIcEEEEJRA29_KcS9_RA5_SA_S9_EEET_DpOT0_, symObjAddr: 0x12C98, symBinAddr: 0x1B3AC, symSize: 0x10C }
  - { offsetInCU: 0x9ABC6, offset: 0xADE99, size: 0x8, addend: 0x0, symName: __ZN8nlohmann16json_abi_v3_11_26detail6concatINSt3__112basic_stringIcNS3_11char_traitsIcEENS3_9allocatorIcEEEEJRA39_KcS9_EEET_DpOT0_, symObjAddr: 0x12DA4, symBinAddr: 0x1B4B8, symSize: 0xA0 }
  - { offsetInCU: 0x9B139, offset: 0xAE40C, size: 0x8, addend: 0x0, symName: __ZN8nlohmann16json_abi_v3_11_26detail6concatINSt3__112basic_stringIcNS3_11char_traitsIcEENS3_9allocatorIcEEEEJRA29_KcPSA_EEET_DpOT0_, symObjAddr: 0x13640, symBinAddr: 0x1BD54, symSize: 0x84 }
  - { offsetInCU: 0x9B40F, offset: 0xAE6E2, size: 0x8, addend: 0x0, symName: __ZN8nlohmann16json_abi_v3_11_26detail6concatINSt3__112basic_stringIcNS3_11char_traitsIcEENS3_9allocatorIcEEEEJRA51_KcPSA_EEET_DpOT0_, symObjAddr: 0x23A6C, symBinAddr: 0x2C180, symSize: 0x84 }
  - { offsetInCU: 0x9BAFB, offset: 0xAEDCE, size: 0x8, addend: 0x0, symName: __ZN8nlohmann16json_abi_v3_11_2lsERNSt3__113basic_ostreamIcNS1_11char_traitsIcEEEERKNS0_10basic_jsonINS1_3mapENS1_6vectorENS1_12basic_stringIcS4_NS1_9allocatorIcEEEEbxydSB_NS0_14adl_serializerENS9_IhNSB_IhEEEEEE, symObjAddr: 0x3CA8, symBinAddr: 0xC3BC, symSize: 0x344 }
  - { offsetInCU: 0x9EA87, offset: 0xB1D5A, size: 0x8, addend: 0x0, symName: __ZN7aiutils20WebConnectionFactory11GetInstanceEv, symObjAddr: 0x1630, symBinAddr: 0x9DCC, symSize: 0xB4 }
  - { offsetInCU: 0x9EAA7, offset: 0xB1D7A, size: 0x8, addend: 0x0, symName: __ZZN7aiutils20WebConnectionFactory11GetInstanceEvE23__pWebConnectionFactory, symObjAddr: 0x45628, symBinAddr: 0x84E90, symSize: 0x0 }
  - { offsetInCU: 0x9EDE0, offset: 0xB20B3, size: 0x8, addend: 0x0, symName: __ZN8nlohmann16json_abi_v3_11_26detail10serializerINS0_10basic_jsonINSt3__13mapENS4_6vectorENS4_12basic_stringIcNS4_11char_traitsIcEENS4_9allocatorIcEEEEbxydSA_NS0_14adl_serializerENS6_IhNSA_IhEEEEEEE12dump_integerIxLi0EEEvT_, symObjAddr: 0x1287C, symBinAddr: 0x1AF90, symSize: 0x248 }
  - { offsetInCU: 0x9EE04, offset: 0xB20D7, size: 0x8, addend: 0x0, symName: __ZZN8nlohmann16json_abi_v3_11_26detail10serializerINS0_10basic_jsonINSt3__13mapENS4_6vectorENS4_12basic_stringIcNS4_11char_traitsIcEENS4_9allocatorIcEEEEbxydSA_NS0_14adl_serializerENS6_IhNSA_IhEEEEEEE12dump_integerIxLi0EEEvT_E12digits_to_99, symObjAddr: 0x3F831, symBinAddr: 0x7A491, symSize: 0x0 }
  - { offsetInCU: 0x9EFFE, offset: 0xB22D1, size: 0x8, addend: 0x0, symName: __ZN7httplib6ClientC2ERKNSt3__112basic_stringIcNS1_11char_traitsIcEENS1_9allocatorIcEEEES9_S9_, symObjAddr: 0x138E4, symBinAddr: 0x1BFF8, symSize: 0xA44 }
  - { offsetInCU: 0x9F028, offset: 0xB22FB, size: 0x8, addend: 0x0, symName: __ZZN7httplib6ClientC1ERKNSt3__112basic_stringIcNS1_11char_traitsIcEENS1_9allocatorIcEEEES9_S9_E2re, symObjAddr: 0x45638, symBinAddr: 0x84EA0, symSize: 0x0 }
  - { offsetInCU: 0xA2616, offset: 0xB58E9, size: 0x8, addend: 0x0, symName: __ZZN7httplib6detail21write_content_chunkedIZNS_10ClientImpl27write_content_with_providerERNS_6StreamERKNS_7RequestERNS_5ErrorEEUlvE_NS0_10compressorEEEbS4_RKNSt3__18functionIFbmmRNS_8DataSinkEEEERKT_RT0_S9_ENKUlPKNSC_8multimapINSC_12basic_stringIcNSC_11char_traitsIcEENSC_9allocatorIcEEEESV_NS0_2ciENST_INSC_4pairIKSV_SV_EEEEEEE_clES13_, symObjAddr: 0x2CC94, symBinAddr: 0x353A8, symSize: 0x858 }
  - { offsetInCU: 0xA263E, offset: 0xB5911, size: 0x8, addend: 0x0, symName: __ZZZN7httplib6detail21write_content_chunkedIZNS_10ClientImpl27write_content_with_providerERNS_6StreamERKNS_7RequestERNS_5ErrorEEUlvE_NS0_10compressorEEEbS4_RKNSt3__18functionIFbmmRNS_8DataSinkEEEERKT_RT0_S9_ENKUlPKNSC_8multimapINSC_12basic_stringIcNSC_11char_traitsIcEENSC_9allocatorIcEEEESV_NS0_2ciENST_INSC_4pairIKSV_SV_EEEEEEE_clES13_E11done_marker, symObjAddr: 0x45690, symBinAddr: 0x84EF8, symSize: 0x0 }
  - { offsetInCU: 0xA2655, offset: 0xB5928, size: 0x8, addend: 0x0, symName: __ZZZN7httplib6detail21write_content_chunkedIZNS_10ClientImpl27write_content_with_providerERNS_6StreamERKNS_7RequestERNS_5ErrorEEUlvE_NS0_10compressorEEEbS4_RKNSt3__18functionIFbmmRNS_8DataSinkEEEERKT_RT0_S9_ENKUlPKNSC_8multimapINSC_12basic_stringIcNSC_11char_traitsIcEENSC_9allocatorIcEEEESV_NS0_2ciENST_INSC_4pairIKSV_SV_EEEEEEE_clES13_E4crlf, symObjAddr: 0x456B0, symBinAddr: 0x84F18, symSize: 0x0 }
  - { offsetInCU: 0xA50B1, offset: 0xB8384, size: 0x8, addend: 0x0, symName: __ZN7httplib10ClientImpl18read_response_lineERNS_6StreamERKNS_7RequestERNS_8ResponseE, symObjAddr: 0x29100, symBinAddr: 0x31814, symSize: 0xB6C }
  - { offsetInCU: 0xA50D7, offset: 0xB83AA, size: 0x8, addend: 0x0, symName: __ZZN7httplib10ClientImpl18read_response_lineERNS_6StreamERKNS_7RequestERNS_8ResponseEE2re, symObjAddr: 0x456D0, symBinAddr: 0x84F38, symSize: 0x0 }
  - { offsetInCU: 0xA7BAF, offset: 0xBAE82, size: 0x8, addend: 0x0, symName: __ZN7httplib10ClientImpl8redirectERNS_7RequestERNS_8ResponseERNS_5ErrorE, symObjAddr: 0x36084, symBinAddr: 0x3E798, symSize: 0x12A8 }
  - { offsetInCU: 0xA7BD5, offset: 0xBAEA8, size: 0x8, addend: 0x0, symName: __ZZN7httplib10ClientImpl8redirectERNS_7RequestERNS_8ResponseERNS_5ErrorEE2re, symObjAddr: 0x45760, symBinAddr: 0x84FC8, symSize: 0x0 }
  - { offsetInCU: 0xAEC93, offset: 0xC1F66, size: 0x8, addend: 0x0, symName: __ZN7httplib9SSLClientC2ERKNSt3__112basic_stringIcNS1_11char_traitsIcEENS1_9allocatorIcEEEEiS9_S9_, symObjAddr: 0x2032C, symBinAddr: 0x28A40, symSize: 0x1FC }
  - { offsetInCU: 0xAF513, offset: 0xC27E6, size: 0x8, addend: 0x0, symName: __ZN7httplib10ClientImpl3GetERKNSt3__112basic_stringIcNS1_11char_traitsIcEENS1_9allocatorIcEEEERKNS1_8multimapIS7_S7_NS_6detail2ciENS5_INS1_4pairIS8_S7_EEEEEENS1_8functionIFbRKNS_8ResponseEEEENSJ_IFbPKcmEEENSJ_IFbyyEEE, symObjAddr: 0x250A8, symBinAddr: 0x2D7BC, symSize: 0x33C }
  - { offsetInCU: 0xB046D, offset: 0xC3740, size: 0x8, addend: 0x0, symName: __ZN7httplib9SSLClient18connect_with_proxyERNS_10ClientImpl6SocketERNS_8ResponseERbRNS_5ErrorE, symObjAddr: 0x26850, symBinAddr: 0x2EF64, symSize: 0x4C0 }
  - { offsetInCU: 0xB2A45, offset: 0xC5D18, size: 0x8, addend: 0x0, symName: __ZZN7httplib6detail21write_content_chunkedIZNS_10ClientImpl27write_content_with_providerERNS_6StreamERKNS_7RequestERNS_5ErrorEEUlvE_NS0_10compressorEEEbS4_RKNSt3__18functionIFbmmRNS_8DataSinkEEEERKT_RT0_S9_ENKUlPKcmE_clESQ_m, symObjAddr: 0x2C484, symBinAddr: 0x34B98, symSize: 0x488 }
  - { offsetInCU: 0xB4B13, offset: 0xC7DE6, size: 0x8, addend: 0x0, symName: __ZN7httplib10ClientImpl15process_requestERNS_6StreamERNS_7RequestERNS_8ResponseEbRNS_5ErrorE, symObjAddr: 0x27CA8, symBinAddr: 0x303BC, symSize: 0x72C }
  - { offsetInCU: 0xB7F57, offset: 0xCB22A, size: 0x8, addend: 0x0, symName: __ZNK7httplib9SSLClient15check_host_nameEPKcm, symObjAddr: 0x34D78, symBinAddr: 0x3D48C, symSize: 0x390 }
  - { offsetInCU: 0xB8D23, offset: 0xCBFF6, size: 0x8, addend: 0x0, symName: __ZN7httplib10ClientImpl5send_ERNS_7RequestERNS_8ResponseERNS_5ErrorE, symObjAddr: 0x26458, symBinAddr: 0x2EB6C, symSize: 0x3F8 }
  - { offsetInCU: 0xB9FDC, offset: 0xCD2AF, size: 0x8, addend: 0x0, symName: __ZN7aiutils11FileFetcher27downloadRemoteFileAndVerifyENSt3__112basic_stringIcNS1_11char_traitsIcEENS1_9allocatorIcEEEES7_j, symObjAddr: 0x7C4, symBinAddr: 0x8F60, symSize: 0xE6C }
  - { offsetInCU: 0xC1583, offset: 0xD4856, size: 0x8, addend: 0x0, symName: __ZN7aiutils11FileFetcher15verifyLocalFileENSt3__112basic_stringIcNS1_11char_traitsIcEENS1_9allocatorIcEEEES7_, symObjAddr: 0x0, symBinAddr: 0x879C, symSize: 0x480 }
  - { offsetInCU: 0xC2F00, offset: 0xD61D3, size: 0x8, addend: 0x0, symName: __ZN7aiutils11FileFetcher8filePathENSt3__112basic_stringIcNS1_11char_traitsIcEENS1_9allocatorIcEEEE, symObjAddr: 0x480, symBinAddr: 0x8C1C, symSize: 0x138 }
  - { offsetInCU: 0xC37D9, offset: 0xD6AAC, size: 0x8, addend: 0x0, symName: __ZN7aiutils6LoggerC2Ev, symObjAddr: 0x20FC, symBinAddr: 0xA898, symSize: 0x164 }
  - { offsetInCU: 0xC394E, offset: 0xD6C21, size: 0x8, addend: 0x0, symName: __ZN7aiutils6Logger6streamEv, symObjAddr: 0x1FA4, symBinAddr: 0xA740, symSize: 0x158 }
  - { offsetInCU: 0xC3BE9, offset: 0xD6EBC, size: 0x8, addend: 0x0, symName: __ZNSt3__110shared_ptrINS_3mapINS_12basic_stringIcNS_11char_traitsIcEENS_9allocatorIcEEEENS_6vectorIhNS5_IhEEEENS_4lessIS7_EENS5_INS_4pairIKS7_SA_EEEEEEED1B8ue170006Ev, symObjAddr: 0x5B8, symBinAddr: 0x8D54, symSize: 0x60 }
  - { offsetInCU: 0xC3EE0, offset: 0xD71B3, size: 0x8, addend: 0x0, symName: __ZN7aiutils11FileFetcher15setLocalDirPathENSt3__112basic_stringIcNS1_11char_traitsIcEENS1_9allocatorIcEEEE, symObjAddr: 0x618, symBinAddr: 0x8DB4, symSize: 0x1AC }
  - { offsetInCU: 0xC4442, offset: 0xD7715, size: 0x8, addend: 0x0, symName: __ZNSt3__112basic_stringIcNS_11char_traitsIcEENS_9allocatorIcEEE6appendB8ue170006IPKcLi0EEERS5_T_SA_, symObjAddr: 0x3B2AC, symBinAddr: 0x439C0, symSize: 0x250 }
  - { offsetInCU: 0xC5860, offset: 0xD8B33, size: 0x8, addend: 0x0, symName: __ZN7aiutils20WebConnectionFactory10makeClientENSt3__112basic_stringIcNS1_11char_traitsIcEENS1_9allocatorIcEEEE, symObjAddr: 0x16E4, symBinAddr: 0x9E80, symSize: 0x3E0 }
  - { offsetInCU: 0xC7145, offset: 0xDA418, size: 0x8, addend: 0x0, symName: __ZNSt3__14pairIKNS_12basic_stringIcNS_11char_traitsIcEENS_9allocatorIcEEEES6_EC2B8ue170006IRA16_KcRA9_SA_LPv0EEEOT_OT0_, symObjAddr: 0x23C68, symBinAddr: 0x2C37C, symSize: 0x138 }
  - { offsetInCU: 0xC7A16, offset: 0xDACE9, size: 0x8, addend: 0x0, symName: __ZNSt3__16__treeINS_12__value_typeINS_12basic_stringIcNS_11char_traitsIcEENS_9allocatorIcEEEES7_EENS_19__map_value_compareIS7_S8_N7httplib6detail2ciELb1EEENS5_IS8_EEE20__emplace_hint_multiIJRKNS_4pairIKS7_S7_EEEEENS_15__tree_iteratorIS8_PNS_11__tree_nodeIS8_PvEElEENS_21__tree_const_iteratorIS8_SQ_lEEDpOT_, symObjAddr: 0x37D80, symBinAddr: 0x40494, symSize: 0xD8 }
  - { offsetInCU: 0xC7D83, offset: 0xDB056, size: 0x8, addend: 0x0, symName: __ZN7httplib10ClientImpl3GetERKNSt3__112basic_stringIcNS1_11char_traitsIcEENS1_9allocatorIcEEEERKNS1_8multimapIS7_S7_NS_6detail2ciENS5_INS1_4pairIS8_S7_EEEEEENS1_8functionIFbPKcmEEE, symObjAddr: 0x24EE8, symBinAddr: 0x2D5FC, symSize: 0x1C0 }
  - { offsetInCU: 0xC8257, offset: 0xDB52A, size: 0x8, addend: 0x0, symName: __ZNSt3__16__treeINS_12__value_typeINS_12basic_stringIcNS_11char_traitsIcEENS_9allocatorIcEEEES7_EENS_19__map_value_compareIS7_S8_N7httplib6detail2ciELb1EEENS5_IS8_EEE7destroyEPNS_11__tree_nodeIS8_PvEE, symObjAddr: 0x25BD0, symBinAddr: 0x2E2E4, symSize: 0x78 }
  - { offsetInCU: 0xC860D, offset: 0xDB8E0, size: 0x8, addend: 0x0, symName: __ZN7httplib8ResponseD2Ev, symObjAddr: 0x33DD0, symBinAddr: 0x3C4E4, symSize: 0x130 }
  - { offsetInCU: 0xC8D0B, offset: 0xDBFDE, size: 0x8, addend: 0x0, symName: __ZN7aiutils10SystemInfoC2Ev, symObjAddr: 0x23DA0, symBinAddr: 0x2C4B4, symSize: 0x214 }
  - { offsetInCU: 0xC9A3C, offset: 0xDCD0F, size: 0x8, addend: 0x0, symName: __ZNSt3__14pairIKNS_12basic_stringIcNS_11char_traitsIcEENS_9allocatorIcEEEES6_ED1Ev, symObjAddr: 0x1AC4, symBinAddr: 0xA260, symSize: 0x58 }
  - { offsetInCU: 0xC9CB9, offset: 0xDCF8C, size: 0x8, addend: 0x0, symName: __ZN7httplib6ResultD1Ev, symObjAddr: 0x1EE0, symBinAddr: 0xA67C, symSize: 0x40 }
  - { offsetInCU: 0xC9E65, offset: 0xDD138, size: 0x8, addend: 0x0, symName: __ZNSt3__110shared_ptrIN7httplib6ClientEED1B8ue170006Ev, symObjAddr: 0x1F20, symBinAddr: 0xA6BC, symSize: 0x60 }
  - { offsetInCU: 0xCA058, offset: 0xDD32B, size: 0x8, addend: 0x0, symName: __ZN7aiutils20WebConnectionFactoryC2Ev, symObjAddr: 0x302C, symBinAddr: 0xB740, symSize: 0x684 }
  - { offsetInCU: 0xCC7AA, offset: 0xDFA7D, size: 0x8, addend: 0x0, symName: __ZN8nlohmann16json_abi_v3_11_210basic_jsonINSt3__13mapENS2_6vectorENS2_12basic_stringIcNS2_11char_traitsIcEENS2_9allocatorIcEEEEbxydS8_NS0_14adl_serializerENS4_IhNS8_IhEEEEEixIKcEERSE_PT_, symObjAddr: 0x13800, symBinAddr: 0x1BF14, symSize: 0xE4 }
  - { offsetInCU: 0xCCE44, offset: 0xE0117, size: 0x8, addend: 0x0, symName: __ZNSt3__112basic_stringIcNS_11char_traitsIcEENS_9allocatorIcEEEC1B8ue170006ILi0EEEPKc, symObjAddr: 0x1B1C, symBinAddr: 0xA2B8, symSize: 0xA0 }
  - { offsetInCU: 0xCD1F8, offset: 0xE04CB, size: 0x8, addend: 0x0, symName: __ZN7httplib9to_stringENS_5ErrorE, symObjAddr: 0x1BBC, symBinAddr: 0xA358, symSize: 0x324 }
  - { offsetInCU: 0xCD22C, offset: 0xE04FF, size: 0x8, addend: 0x0, symName: __ZN7aiutils11FileFetcherD1Ev, symObjAddr: 0x1F80, symBinAddr: 0xA71C, symSize: 0x4 }
  - { offsetInCU: 0xCD24F, offset: 0xE0522, size: 0x8, addend: 0x0, symName: __ZN7aiutils11FileFetcherD1Ev, symObjAddr: 0x1F80, symBinAddr: 0xA71C, symSize: 0x4 }
  - { offsetInCU: 0xCD263, offset: 0xE0536, size: 0x8, addend: 0x0, symName: __ZN7aiutils11FileFetcherD2Ev, symObjAddr: 0x3AF14, symBinAddr: 0x43628, symSize: 0xA0 }
  - { offsetInCU: 0xCD778, offset: 0xE0A4B, size: 0x8, addend: 0x0, symName: __ZN7aiutils11FileFetcherD0Ev, symObjAddr: 0x1F84, symBinAddr: 0xA720, symSize: 0x14 }
  - { offsetInCU: 0xCD994, offset: 0xE0C67, size: 0x8, addend: 0x0, symName: __ZN7aiutils10NullBufferD1Ev, symObjAddr: 0x2260, symBinAddr: 0xA9FC, symSize: 0x4 }
  - { offsetInCU: 0xCD9B7, offset: 0xE0C8A, size: 0x8, addend: 0x0, symName: __ZN7aiutils10NullBufferD1Ev, symObjAddr: 0x2260, symBinAddr: 0xA9FC, symSize: 0x4 }
  - { offsetInCU: 0xCD9EF, offset: 0xE0CC2, size: 0x8, addend: 0x0, symName: __ZN7aiutils10NullBufferD0Ev, symObjAddr: 0x2264, symBinAddr: 0xAA00, symSize: 0x14 }
  - { offsetInCU: 0xCDA56, offset: 0xE0D29, size: 0x8, addend: 0x0, symName: __ZN7aiutils10NullBuffer8overflowEi, symObjAddr: 0x2278, symBinAddr: 0xAA14, symSize: 0x8 }
  - { offsetInCU: 0xCDC7D, offset: 0xE0F50, size: 0x8, addend: 0x0, symName: __ZNKSt3__115basic_stringbufIcNS_11char_traitsIcEENS_9allocatorIcEEE3strEv, symObjAddr: 0x2D00, symBinAddr: 0xB49C, symSize: 0x238 }
  - { offsetInCU: 0xCE275, offset: 0xE1548, size: 0x8, addend: 0x0, symName: __ZNSt3__119basic_ostringstreamIcNS_11char_traitsIcEENS_9allocatorIcEEED1Ev, symObjAddr: 0x266C, symBinAddr: 0xAE08, symSize: 0x8C }
  - { offsetInCU: 0xCE54F, offset: 0xE1822, size: 0x8, addend: 0x0, symName: __ZNSt3__119basic_ostringstreamIcNS_11char_traitsIcEENS_9allocatorIcEEED0Ev, symObjAddr: 0x26F8, symBinAddr: 0xAE94, symSize: 0x8C }
  - { offsetInCU: 0xCE71A, offset: 0xE19ED, size: 0x8, addend: 0x0, symName: __ZTv0_n24_NSt3__119basic_ostringstreamIcNS_11char_traitsIcEENS_9allocatorIcEEED1Ev, symObjAddr: 0x2784, symBinAddr: 0xAF20, symSize: 0x8C }
  - { offsetInCU: 0xCE8F6, offset: 0xE1BC9, size: 0x8, addend: 0x0, symName: __ZTv0_n24_NSt3__119basic_ostringstreamIcNS_11char_traitsIcEENS_9allocatorIcEEED0Ev, symObjAddr: 0x2810, symBinAddr: 0xAFAC, symSize: 0x94 }
  - { offsetInCU: 0xCEAD4, offset: 0xE1DA7, size: 0x8, addend: 0x0, symName: __ZNSt3__115basic_stringbufIcNS_11char_traitsIcEENS_9allocatorIcEEED1Ev, symObjAddr: 0x28A4, symBinAddr: 0xB040, symSize: 0x50 }
  - { offsetInCU: 0xCEC43, offset: 0xE1F16, size: 0x8, addend: 0x0, symName: __ZNSt3__115basic_stringbufIcNS_11char_traitsIcEENS_9allocatorIcEEED0Ev, symObjAddr: 0x28F4, symBinAddr: 0xB090, symSize: 0x58 }
  - { offsetInCU: 0xCEEAE, offset: 0xE2181, size: 0x8, addend: 0x0, symName: __ZNSt3__115basic_stringbufIcNS_11char_traitsIcEENS_9allocatorIcEEE7seekoffExNS_8ios_base7seekdirEj, symObjAddr: 0x294C, symBinAddr: 0xB0E8, symSize: 0x124 }
  - { offsetInCU: 0xCF0CB, offset: 0xE239E, size: 0x8, addend: 0x0, symName: __ZNSt3__115basic_stringbufIcNS_11char_traitsIcEENS_9allocatorIcEEE7seekposENS_4fposI11__mbstate_tEEj, symObjAddr: 0x2A70, symBinAddr: 0xB20C, symSize: 0x18 }
  - { offsetInCU: 0xCF16C, offset: 0xE243F, size: 0x8, addend: 0x0, symName: __ZNSt3__115basic_stringbufIcNS_11char_traitsIcEENS_9allocatorIcEEE9underflowEv, symObjAddr: 0x2A88, symBinAddr: 0xB224, symSize: 0x50 }
  - { offsetInCU: 0xCF219, offset: 0xE24EC, size: 0x8, addend: 0x0, symName: __ZNSt3__115basic_stringbufIcNS_11char_traitsIcEENS_9allocatorIcEEE9pbackfailEi, symObjAddr: 0x2AD8, symBinAddr: 0xB274, symSize: 0x6C }
  - { offsetInCU: 0xCF3EB, offset: 0xE26BE, size: 0x8, addend: 0x0, symName: __ZNSt3__115basic_stringbufIcNS_11char_traitsIcEENS_9allocatorIcEEE8overflowEi, symObjAddr: 0x2B44, symBinAddr: 0xB2E0, symSize: 0x1BC }
  - { offsetInCU: 0xCFA62, offset: 0xE2D35, size: 0x8, addend: 0x0, symName: __ZNSt3__110unique_ptrIN7aiutils20WebConnectionFactoryENS_14default_deleteIS2_EEED1B8ue170006Ev, symObjAddr: 0x2FE8, symBinAddr: 0xB6FC, symSize: 0x44 }
  - { offsetInCU: 0xCFB65, offset: 0xE2E38, size: 0x8, addend: 0x0, symName: __ZN8nlohmann16json_abi_v3_11_210basic_jsonINSt3__13mapENS2_6vectorENS2_12basic_stringIcNS2_11char_traitsIcEENS2_9allocatorIcEEEEbxydS8_NS0_14adl_serializerENS4_IhNS8_IhEEEEE10json_value7destroyENS0_6detail7value_tE, symObjAddr: 0xD708, symBinAddr: 0x15E1C, symSize: 0x5D8 }
  - { offsetInCU: 0xD1E1C, offset: 0xE50EF, size: 0x8, addend: 0x0, symName: __ZNSt3__114basic_ifstreamIcNS_11char_traitsIcEEEC1ERKNS_12basic_stringIcS2_NS_9allocatorIcEEEEj, symObjAddr: 0x36B0, symBinAddr: 0xBDC4, symSize: 0x108 }
  - { offsetInCU: 0xD2028, offset: 0xE52FB, size: 0x8, addend: 0x0, symName: __ZN8nlohmann16json_abi_v3_11_210basic_jsonINSt3__13mapENS2_6vectorENS2_12basic_stringIcNS2_11char_traitsIcEENS2_9allocatorIcEEEEbxydS8_NS0_14adl_serializerENS4_IhNS8_IhEEEEE5parseIRNS2_14basic_ifstreamIcS7_EEEESE_OT_NS2_8functionIFbiNS0_6detail13parse_event_tERSE_EEEbb, symObjAddr: 0x37B8, symBinAddr: 0xBECC, symSize: 0x2D4 }
  - { offsetInCU: 0xD2B64, offset: 0xE5E37, size: 0x8, addend: 0x0, symName: __ZNK8nlohmann16json_abi_v3_11_210basic_jsonINSt3__13mapENS2_6vectorENS2_12basic_stringIcNS2_11char_traitsIcEENS2_9allocatorIcEEEEbxydS8_NS0_14adl_serializerENS4_IhNS8_IhEEEEE5valueIbRA8_KcbLi0EEET1_OT0_OT_, symObjAddr: 0x3AB8, symBinAddr: 0xC1CC, symSize: 0x1F0 }
  - { offsetInCU: 0xD3292, offset: 0xE6565, size: 0x8, addend: 0x0, symName: __ZNK8nlohmann16json_abi_v3_11_210basic_jsonINSt3__13mapENS2_6vectorENS2_12basic_stringIcNS2_11char_traitsIcEENS2_9allocatorIcEEEEbxydS8_NS0_14adl_serializerENS4_IhNS8_IhEEEEE5valueIRA1_KcRA9_SG_SA_Li0EEET1_OT0_OT_, symObjAddr: 0x3FEC, symBinAddr: 0xC700, symSize: 0x26C }
  - { offsetInCU: 0xD3F7F, offset: 0xE7252, size: 0x8, addend: 0x0, symName: __ZNK8nlohmann16json_abi_v3_11_210basic_jsonINSt3__13mapENS2_6vectorENS2_12basic_stringIcNS2_11char_traitsIcEENS2_9allocatorIcEEEEbxydS8_NS0_14adl_serializerENS4_IhNS8_IhEEEEE5valueIiRA5_KciLi0EEET1_OT0_OT_, symObjAddr: 0x4258, symBinAddr: 0xC96C, symSize: 0x1F4 }
  - { offsetInCU: 0xD4718, offset: 0xE79EB, size: 0x8, addend: 0x0, symName: __ZNSt3__113basic_filebufIcNS_11char_traitsIcEEED2Ev, symObjAddr: 0x5778, symBinAddr: 0xDE8C, symSize: 0xBC }
  - { offsetInCU: 0xD482E, offset: 0xE7B01, size: 0x8, addend: 0x0, symName: __ZN8nlohmann16json_abi_v3_11_210basic_jsonINSt3__13mapENS2_6vectorENS2_12basic_stringIcNS2_11char_traitsIcEENS2_9allocatorIcEEEEbxydS8_NS0_14adl_serializerENS4_IhNS8_IhEEEEED1Ev, symObjAddr: 0x3A8C, symBinAddr: 0xC1A0, symSize: 0x2C }
  - { offsetInCU: 0xD4878, offset: 0xE7B4B, size: 0x8, addend: 0x0, symName: __ZNSt3__114basic_ifstreamIcNS_11char_traitsIcEEED1Ev, symObjAddr: 0x444C, symBinAddr: 0xCB60, symSize: 0x60 }
  - { offsetInCU: 0xD4968, offset: 0xE7C3B, size: 0x8, addend: 0x0, symName: __ZNSt3__113basic_filebufIcNS_11char_traitsIcEEEC2Ev, symObjAddr: 0x496C, symBinAddr: 0xD080, symSize: 0x12C }
  - { offsetInCU: 0xD4A4F, offset: 0xE7D22, size: 0x8, addend: 0x0, symName: __ZNSt3__113basic_filebufIcNS_11char_traitsIcEEE4openEPKcj, symObjAddr: 0x5640, symBinAddr: 0xDD54, symSize: 0x138 }
  - { offsetInCU: 0xD4EC5, offset: 0xE8198, size: 0x8, addend: 0x0, symName: __ZN8nlohmann16json_abi_v3_11_26detail6parserINS0_10basic_jsonINSt3__13mapENS4_6vectorENS4_12basic_stringIcNS4_11char_traitsIcEENS4_9allocatorIcEEEEbxydSA_NS0_14adl_serializerENS6_IhNSA_IhEEEEEENS1_20input_stream_adapterEEC2EOSH_NS4_8functionIFbiNS1_13parse_event_tERSG_EEEbb, symObjAddr: 0x604C, symBinAddr: 0xE760, symSize: 0x13C }
  - { offsetInCU: 0xD5166, offset: 0xE8439, size: 0x8, addend: 0x0, symName: __ZN8nlohmann16json_abi_v3_11_26detail6parserINS0_10basic_jsonINSt3__13mapENS4_6vectorENS4_12basic_stringIcNS4_11char_traitsIcEENS4_9allocatorIcEEEEbxydSA_NS0_14adl_serializerENS6_IhNSA_IhEEEEEENS1_20input_stream_adapterEE5parseEbRSG_, symObjAddr: 0x5834, symBinAddr: 0xDF48, symSize: 0x744 }
  - { offsetInCU: 0xD72D4, offset: 0xEA5A7, size: 0x8, addend: 0x0, symName: __ZN8nlohmann16json_abi_v3_11_26detail6parserINS0_10basic_jsonINSt3__13mapENS4_6vectorENS4_12basic_stringIcNS4_11char_traitsIcEENS4_9allocatorIcEEEEbxydSA_NS0_14adl_serializerENS6_IhNSA_IhEEEEEENS1_20input_stream_adapterEED1Ev, symObjAddr: 0x5F78, symBinAddr: 0xE68C, symSize: 0x90 }
  - { offsetInCU: 0xD76F8, offset: 0xEA9CB, size: 0x8, addend: 0x0, symName: __ZN8nlohmann16json_abi_v3_11_26detail20input_stream_adapterD1Ev, symObjAddr: 0x6008, symBinAddr: 0xE71C, symSize: 0x44 }
  - { offsetInCU: 0xD7B78, offset: 0xEAE4B, size: 0x8, addend: 0x0, symName: __ZNK8nlohmann16json_abi_v3_11_26detail9iter_implIKNS0_10basic_jsonINSt3__13mapENS4_6vectorENS4_12basic_stringIcNS4_11char_traitsIcEENS4_9allocatorIcEEEEbxydSA_NS0_14adl_serializerENS6_IhNSA_IhEEEEEEEeqISI_LDn0EEEbRKT_, symObjAddr: 0x10D5C, symBinAddr: 0x19470, symSize: 0x108 }
  - { offsetInCU: 0xD7DED, offset: 0xEB0C0, size: 0x8, addend: 0x0, symName: __ZNK8nlohmann16json_abi_v3_11_26detail9iter_implIKNS0_10basic_jsonINSt3__13mapENS4_6vectorENS4_12basic_stringIcNS4_11char_traitsIcEENS4_9allocatorIcEEEEbxydSA_NS0_14adl_serializerENS6_IhNSA_IhEEEEEEEptEv, symObjAddr: 0x10A88, symBinAddr: 0x1919C, symSize: 0x100 }
  - { offsetInCU: 0xD8027, offset: 0xEB2FA, size: 0x8, addend: 0x0, symName: __ZNK8nlohmann16json_abi_v3_11_210basic_jsonINSt3__13mapENS2_6vectorENS2_12basic_stringIcNS2_11char_traitsIcEENS2_9allocatorIcEEEEbxydS8_NS0_14adl_serializerENS4_IhNS8_IhEEEEE8get_implIbLi0EEET_NS0_6detail12priority_tagILj0EEE, symObjAddr: 0x11030, symBinAddr: 0x19744, symSize: 0x124 }
  - { offsetInCU: 0xD8497, offset: 0xEB76A, size: 0x8, addend: 0x0, symName: __ZNK8nlohmann16json_abi_v3_11_210basic_jsonINSt3__13mapENS2_6vectorENS2_12basic_stringIcNS2_11char_traitsIcEENS2_9allocatorIcEEEEbxydS8_NS0_14adl_serializerENS4_IhNS8_IhEEEEE9type_nameEv, symObjAddr: 0xD104, symBinAddr: 0x15818, symSize: 0x28 }
  - { offsetInCU: 0xD84CE, offset: 0xEB7A1, size: 0x8, addend: 0x0, symName: __ZN8nlohmann16json_abi_v3_11_26detail10type_error6createIPKNS0_10basic_jsonINSt3__13mapENS5_6vectorENS5_12basic_stringIcNS5_11char_traitsIcEENS5_9allocatorIcEEEEbxydSB_NS0_14adl_serializerENS7_IhNSB_IhEEEEEELi0EEES2_iRKSD_T_, symObjAddr: 0x10B88, symBinAddr: 0x1929C, symSize: 0x1D4 }
  - { offsetInCU: 0xD9910, offset: 0xECBE3, size: 0x8, addend: 0x0, symName: __ZN8nlohmann16json_abi_v3_11_26detail10serializerINS0_10basic_jsonINSt3__13mapENS4_6vectorENS4_12basic_stringIcNS4_11char_traitsIcEENS4_9allocatorIcEEEEbxydSA_NS0_14adl_serializerENS6_IhNSA_IhEEEEEEE4dumpERKSG_bbjj, symObjAddr: 0x11214, symBinAddr: 0x19928, symSize: 0x1034 }
  - { offsetInCU: 0xDB900, offset: 0xEEBD3, size: 0x8, addend: 0x0, symName: __ZN8nlohmann16json_abi_v3_11_26detail10serializerINS0_10basic_jsonINSt3__13mapENS4_6vectorENS4_12basic_stringIcNS4_11char_traitsIcEENS4_9allocatorIcEEEEbxydSA_NS0_14adl_serializerENS6_IhNSA_IhEEEEEEED1Ev, symObjAddr: 0x12248, symBinAddr: 0x1A95C, symSize: 0x78 }
  - { offsetInCU: 0xDBB09, offset: 0xEEDDC, size: 0x8, addend: 0x0, symName: __ZN8nlohmann16json_abi_v3_11_2lsERNSt3__113basic_ostreamIcNS1_11char_traitsIcEEEERKNS0_10basic_jsonINS1_3mapENS1_6vectorENS1_12basic_stringIcS4_NS1_9allocatorIcEEEEbxydSB_NS0_14adl_serializerENS9_IhNSB_IhEEEEEE.cold.1, symObjAddr: 0x3B8E8, symBinAddr: 0x6C46C, symSize: 0x30 }
  - { offsetInCU: 0xDBBAA, offset: 0xEEE7D, size: 0x8, addend: 0x0, symName: __ZNSt3__110shared_ptrIN8nlohmann16json_abi_v3_11_26detail23output_adapter_protocolIcEEED1B8ue170006Ev, symObjAddr: 0x11154, symBinAddr: 0x19868, symSize: 0x60 }
  - { offsetInCU: 0xDBC48, offset: 0xEEF1B, size: 0x8, addend: 0x0, symName: __ZN8nlohmann16json_abi_v3_11_26detail14output_adapterIcNSt3__112basic_stringIcNS3_11char_traitsIcEENS3_9allocatorIcEEEEED1Ev, symObjAddr: 0x111B4, symBinAddr: 0x198C8, symSize: 0x60 }
  - { offsetInCU: 0xDC8A3, offset: 0xEFB76, size: 0x8, addend: 0x0, symName: __ZN8nlohmann16json_abi_v3_11_210basic_jsonINSt3__13mapENS2_6vectorENS2_12basic_stringIcNS2_11char_traitsIcEENS2_9allocatorIcEEEEbxydS8_NS0_14adl_serializerENS4_IhNS8_IhEEEEE10json_valueC2ENS0_6detail7value_tE, symObjAddr: 0x44AC, symBinAddr: 0xCBC0, symSize: 0xF8 }
  - { offsetInCU: 0xDCE9D, offset: 0xF0170, size: 0x8, addend: 0x0, symName: __ZNK8nlohmann16json_abi_v3_11_26detail9exception4whatEv, symObjAddr: 0x47CC, symBinAddr: 0xCEE0, symSize: 0x8 }
  - { offsetInCU: 0xDCEE6, offset: 0xF01B9, size: 0x8, addend: 0x0, symName: __ZN8nlohmann16json_abi_v3_11_26detail9exceptionD1Ev, symObjAddr: 0x47D4, symBinAddr: 0xCEE8, symSize: 0x34 }
  - { offsetInCU: 0xDCF47, offset: 0xF021A, size: 0x8, addend: 0x0, symName: __ZN8nlohmann16json_abi_v3_11_26detail9exceptionD0Ev, symObjAddr: 0x4808, symBinAddr: 0xCF1C, symSize: 0x38 }
  - { offsetInCU: 0xDCFB3, offset: 0xF0286, size: 0x8, addend: 0x0, symName: __ZNSt3__113basic_filebufIcNS_11char_traitsIcEEED1Ev, symObjAddr: 0x4840, symBinAddr: 0xCF54, symSize: 0x4 }
  - { offsetInCU: 0xDCFD6, offset: 0xF02A9, size: 0x8, addend: 0x0, symName: __ZNSt3__113basic_filebufIcNS_11char_traitsIcEEED1Ev, symObjAddr: 0x4840, symBinAddr: 0xCF54, symSize: 0x4 }
  - { offsetInCU: 0xDCFEA, offset: 0xF02BD, size: 0x8, addend: 0x0, symName: __ZNSt3__114basic_ifstreamIcNS_11char_traitsIcEEED0Ev, symObjAddr: 0x4844, symBinAddr: 0xCF58, symSize: 0x60 }
  - { offsetInCU: 0xDD07F, offset: 0xF0352, size: 0x8, addend: 0x0, symName: __ZTv0_n24_NSt3__114basic_ifstreamIcNS_11char_traitsIcEEED1Ev, symObjAddr: 0x48A4, symBinAddr: 0xCFB8, symSize: 0x60 }
  - { offsetInCU: 0xDD12B, offset: 0xF03FE, size: 0x8, addend: 0x0, symName: __ZTv0_n24_NSt3__114basic_ifstreamIcNS_11char_traitsIcEEED0Ev, symObjAddr: 0x4904, symBinAddr: 0xD018, symSize: 0x68 }
  - { offsetInCU: 0xDD20A, offset: 0xF04DD, size: 0x8, addend: 0x0, symName: __ZNSt3__113basic_filebufIcNS_11char_traitsIcEEED0Ev, symObjAddr: 0x4A98, symBinAddr: 0xD1AC, symSize: 0x14 }
  - { offsetInCU: 0xDD269, offset: 0xF053C, size: 0x8, addend: 0x0, symName: __ZNSt3__113basic_filebufIcNS_11char_traitsIcEEE5imbueERKNS_6localeE, symObjAddr: 0x4AAC, symBinAddr: 0xD1C0, symSize: 0xFC }
  - { offsetInCU: 0xDD340, offset: 0xF0613, size: 0x8, addend: 0x0, symName: __ZNSt3__113basic_filebufIcNS_11char_traitsIcEEE6setbufEPcl, symObjAddr: 0x4BA8, symBinAddr: 0xD2BC, symSize: 0x118 }
  - { offsetInCU: 0xDD422, offset: 0xF06F5, size: 0x8, addend: 0x0, symName: __ZNSt3__113basic_filebufIcNS_11char_traitsIcEEE7seekoffExNS_8ios_base7seekdirEj, symObjAddr: 0x4CC0, symBinAddr: 0xD3D4, symSize: 0x110 }
  - { offsetInCU: 0xDD55A, offset: 0xF082D, size: 0x8, addend: 0x0, symName: __ZNSt3__113basic_filebufIcNS_11char_traitsIcEEE7seekposENS_4fposI11__mbstate_tEEj, symObjAddr: 0x4DD0, symBinAddr: 0xD4E4, symSize: 0xBC }
  - { offsetInCU: 0xDD5A1, offset: 0xF0874, size: 0x8, addend: 0x0, symName: __ZNSt3__113basic_filebufIcNS_11char_traitsIcEEE7seekposENS_4fposI11__mbstate_tEEj, symObjAddr: 0x4DD0, symBinAddr: 0xD4E4, symSize: 0xBC }
  - { offsetInCU: 0xDD6B1, offset: 0xF0984, size: 0x8, addend: 0x0, symName: __ZNSt3__113basic_filebufIcNS_11char_traitsIcEEE4syncEv, symObjAddr: 0x4E8C, symBinAddr: 0xD5A0, symSize: 0x26C }
  - { offsetInCU: 0xDD984, offset: 0xF0C57, size: 0x8, addend: 0x0, symName: __ZNSt3__113basic_filebufIcNS_11char_traitsIcEEE9underflowEv, symObjAddr: 0x50F8, symBinAddr: 0xD80C, symSize: 0x2B4 }
  - { offsetInCU: 0xDDA24, offset: 0xF0CF7, size: 0x8, addend: 0x0, symName: __ZNSt3__113basic_filebufIcNS_11char_traitsIcEEE9underflowEv, symObjAddr: 0x50F8, symBinAddr: 0xD80C, symSize: 0x2B4 }
  - { offsetInCU: 0xDDD62, offset: 0xF1035, size: 0x8, addend: 0x0, symName: __ZNSt3__113basic_filebufIcNS_11char_traitsIcEEE9pbackfailEi, symObjAddr: 0x53AC, symBinAddr: 0xDAC0, symSize: 0x5C }
  - { offsetInCU: 0xDDD8F, offset: 0xF1062, size: 0x8, addend: 0x0, symName: __ZNSt3__113basic_filebufIcNS_11char_traitsIcEEE9pbackfailEi, symObjAddr: 0x53AC, symBinAddr: 0xDAC0, symSize: 0x5C }
  - { offsetInCU: 0xDDEFF, offset: 0xF11D2, size: 0x8, addend: 0x0, symName: __ZNSt3__113basic_filebufIcNS_11char_traitsIcEEE8overflowEi, symObjAddr: 0x5408, symBinAddr: 0xDB1C, symSize: 0x210 }
  - { offsetInCU: 0xDE92A, offset: 0xF1BFD, size: 0x8, addend: 0x0, symName: __ZN8nlohmann16json_abi_v3_11_26detail6parserINS0_10basic_jsonINSt3__13mapENS4_6vectorENS4_12basic_stringIcNS4_11char_traitsIcEENS4_9allocatorIcEEEEbxydSA_NS0_14adl_serializerENS6_IhNSA_IhEEEEEENS1_20input_stream_adapterEE18sax_parse_internalINS1_19json_sax_dom_parserISG_EEEEbPT_, symObjAddr: 0x9544, symBinAddr: 0x11C58, symSize: 0xCA0 }
  - { offsetInCU: 0xE0767, offset: 0xF3A3A, size: 0x8, addend: 0x0, symName: __ZN8nlohmann16json_abi_v3_11_26detail5lexerINS0_10basic_jsonINSt3__13mapENS4_6vectorENS4_12basic_stringIcNS4_11char_traitsIcEENS4_9allocatorIcEEEEbxydSA_NS0_14adl_serializerENS6_IhNSA_IhEEEEEENS1_20input_stream_adapterEE4scanEv, symObjAddr: 0x61EC, symBinAddr: 0xE900, symSize: 0x28C }
  - { offsetInCU: 0xE0AAC, offset: 0xF3D7F, size: 0x8, addend: 0x0, symName: __ZN8nlohmann16json_abi_v3_11_26detail28json_sax_dom_callback_parserINS0_10basic_jsonINSt3__13mapENS4_6vectorENS4_12basic_stringIcNS4_11char_traitsIcEENS4_9allocatorIcEEEEbxydSA_NS0_14adl_serializerENS6_IhNSA_IhEEEEEEEC2ERSG_NS4_8functionIFbiNS1_13parse_event_tESI_EEEb, symObjAddr: 0xA238, symBinAddr: 0x1294C, symSize: 0x1C4 }
  - { offsetInCU: 0xE10FD, offset: 0xF43D0, size: 0x8, addend: 0x0, symName: __ZN8nlohmann16json_abi_v3_11_26detail6parserINS0_10basic_jsonINSt3__13mapENS4_6vectorENS4_12basic_stringIcNS4_11char_traitsIcEENS4_9allocatorIcEEEEbxydSA_NS0_14adl_serializerENS6_IhNSA_IhEEEEEENS1_20input_stream_adapterEE18sax_parse_internalINS1_28json_sax_dom_callback_parserISG_EEEEbPT_, symObjAddr: 0x812C, symBinAddr: 0x10840, symSize: 0xC90 }
  - { offsetInCU: 0xE2EAF, offset: 0xF6182, size: 0x8, addend: 0x0, symName: __ZN8nlohmann16json_abi_v3_11_26detail6parserINS0_10basic_jsonINSt3__13mapENS4_6vectorENS4_12basic_stringIcNS4_11char_traitsIcEENS4_9allocatorIcEEEEbxydSA_NS0_14adl_serializerENS6_IhNSA_IhEEEEEENS1_20input_stream_adapterEE17exception_messageENS1_10lexer_baseISG_E10token_typeERKSC_, symObjAddr: 0x9144, symBinAddr: 0x11858, symSize: 0x3CC }
  - { offsetInCU: 0xE4164, offset: 0xF7437, size: 0x8, addend: 0x0, symName: __ZN8nlohmann16json_abi_v3_11_26detail11parse_error6createIDnLi0EEES2_iRKNS1_10position_tERKNSt3__112basic_stringIcNS7_11char_traitsIcEENS7_9allocatorIcEEEET_, symObjAddr: 0x8EF4, symBinAddr: 0x11608, symSize: 0x250 }
  - { offsetInCU: 0xE5271, offset: 0xF8544, size: 0x8, addend: 0x0, symName: __ZN8nlohmann16json_abi_v3_11_26detail28json_sax_dom_callback_parserINS0_10basic_jsonINSt3__13mapENS4_6vectorENS4_12basic_stringIcNS4_11char_traitsIcEENS4_9allocatorIcEEEEbxydSA_NS0_14adl_serializerENS6_IhNSA_IhEEEEEEED2Ev, symObjAddr: 0xF360, symBinAddr: 0x17A74, symSize: 0x88 }
  - { offsetInCU: 0xE5790, offset: 0xF8A63, size: 0x8, addend: 0x0, symName: __ZN8nlohmann16json_abi_v3_11_26detail5lexerINS0_10basic_jsonINSt3__13mapENS4_6vectorENS4_12basic_stringIcNS4_11char_traitsIcEENS4_9allocatorIcEEEEbxydSA_NS0_14adl_serializerENS6_IhNSA_IhEEEEEENS1_20input_stream_adapterEED1Ev, symObjAddr: 0x6188, symBinAddr: 0xE89C, symSize: 0x64 }
  - { offsetInCU: 0xE5BB0, offset: 0xF8E83, size: 0x8, addend: 0x0, symName: __ZN8nlohmann16json_abi_v3_11_26detail5lexerINS0_10basic_jsonINSt3__13mapENS4_6vectorENS4_12basic_stringIcNS4_11char_traitsIcEENS4_9allocatorIcEEEEbxydSA_NS0_14adl_serializerENS6_IhNSA_IhEEEEEENS1_20input_stream_adapterEE3getEv, symObjAddr: 0x7CE4, symBinAddr: 0x103F8, symSize: 0x288 }
  - { offsetInCU: 0xE607F, offset: 0xF9352, size: 0x8, addend: 0x0, symName: __ZNKSt3__16vectorIcNS_9allocatorIcEEE20__throw_length_errorB8ue170006Ev, symObjAddr: 0x7F6C, symBinAddr: 0x10680, symSize: 0x14 }
  - { offsetInCU: 0xE6091, offset: 0xF9364, size: 0x8, addend: 0x0, symName: __ZN8nlohmann16json_abi_v3_11_26detail5lexerINS0_10basic_jsonINSt3__13mapENS4_6vectorENS4_12basic_stringIcNS4_11char_traitsIcEENS4_9allocatorIcEEEEbxydSA_NS0_14adl_serializerENS6_IhNSA_IhEEEEEENS1_20input_stream_adapterEE15skip_whitespaceEv, symObjAddr: 0x6478, symBinAddr: 0xEB8C, symSize: 0x2A4 }
  - { offsetInCU: 0xE65C1, offset: 0xF9894, size: 0x8, addend: 0x0, symName: __ZN8nlohmann16json_abi_v3_11_26detail5lexerINS0_10basic_jsonINSt3__13mapENS4_6vectorENS4_12basic_stringIcNS4_11char_traitsIcEENS4_9allocatorIcEEEEbxydSA_NS0_14adl_serializerENS6_IhNSA_IhEEEEEENS1_20input_stream_adapterEE12scan_commentEv, symObjAddr: 0x671C, symBinAddr: 0xEE30, symSize: 0x120 }
  - { offsetInCU: 0xE65D3, offset: 0xF98A6, size: 0x8, addend: 0x0, symName: __ZN8nlohmann16json_abi_v3_11_26detail5lexerINS0_10basic_jsonINSt3__13mapENS4_6vectorENS4_12basic_stringIcNS4_11char_traitsIcEENS4_9allocatorIcEEEEbxydSA_NS0_14adl_serializerENS6_IhNSA_IhEEEEEENS1_20input_stream_adapterEE12scan_commentEv, symObjAddr: 0x671C, symBinAddr: 0xEE30, symSize: 0x120 }
  - { offsetInCU: 0xE66E3, offset: 0xF99B6, size: 0x8, addend: 0x0, symName: __ZN8nlohmann16json_abi_v3_11_26detail5lexerINS0_10basic_jsonINSt3__13mapENS4_6vectorENS4_12basic_stringIcNS4_11char_traitsIcEENS4_9allocatorIcEEEEbxydSA_NS0_14adl_serializerENS6_IhNSA_IhEEEEEENS1_20input_stream_adapterEE11scan_numberEv, symObjAddr: 0x76A0, symBinAddr: 0xFDB4, symSize: 0x644 }
  - { offsetInCU: 0xE756F, offset: 0xFA842, size: 0x8, addend: 0x0, symName: __ZN8nlohmann16json_abi_v3_11_26detail5lexerINS0_10basic_jsonINSt3__13mapENS4_6vectorENS4_12basic_stringIcNS4_11char_traitsIcEENS4_9allocatorIcEEEEbxydSA_NS0_14adl_serializerENS6_IhNSA_IhEEEEEENS1_20input_stream_adapterEE11scan_stringEv, symObjAddr: 0x683C, symBinAddr: 0xEF50, symSize: 0xE64 }
  - { offsetInCU: 0xE9113, offset: 0xFC3E6, size: 0x8, addend: 0x0, symName: __ZNKSt3__16vectorIcNS_9allocatorIcEEE20__throw_length_errorB8ue170006Ev, symObjAddr: 0x7F6C, symBinAddr: 0x10680, symSize: 0x14 }
  - { offsetInCU: 0xE913C, offset: 0xFC40F, size: 0x8, addend: 0x0, symName: __ZN8nlohmann16json_abi_v3_11_26detail5lexerINS0_10basic_jsonINSt3__13mapENS4_6vectorENS4_12basic_stringIcNS4_11char_traitsIcEENS4_9allocatorIcEEEEbxydSA_NS0_14adl_serializerENS6_IhNSA_IhEEEEEENS1_20input_stream_adapterEE13get_codepointEv, symObjAddr: 0x7F80, symBinAddr: 0x10694, symSize: 0x1AC }
  - { offsetInCU: 0xE91EA, offset: 0xFC4BD, size: 0x8, addend: 0x0, symName: __ZN8nlohmann16json_abi_v3_11_26detail5lexerINS0_10basic_jsonINSt3__13mapENS4_6vectorENS4_12basic_stringIcNS4_11char_traitsIcEENS4_9allocatorIcEEEEbxydSA_NS0_14adl_serializerENS6_IhNSA_IhEEEEEENS1_20input_stream_adapterEE13get_codepointEv, symObjAddr: 0x7F80, symBinAddr: 0x10694, symSize: 0x1AC }
  - { offsetInCU: 0xE96E7, offset: 0xFC9BA, size: 0x8, addend: 0x0, symName: __ZN8nlohmann16json_abi_v3_11_26detail28json_sax_dom_callback_parserINS0_10basic_jsonINSt3__13mapENS4_6vectorENS4_12basic_stringIcNS4_11char_traitsIcEENS4_9allocatorIcEEEEbxydSA_NS0_14adl_serializerENS6_IhNSA_IhEEEEEEE12handle_valueIRbEENS4_4pairIbPSG_EEOT_b, symObjAddr: 0xE428, symBinAddr: 0x16B3C, symSize: 0x20C }
  - { offsetInCU: 0xE9E78, offset: 0xFD14B, size: 0x8, addend: 0x0, symName: __ZN8nlohmann16json_abi_v3_11_26detail28json_sax_dom_callback_parserINS0_10basic_jsonINSt3__13mapENS4_6vectorENS4_12basic_stringIcNS4_11char_traitsIcEENS4_9allocatorIcEEEEbxydSA_NS0_14adl_serializerENS6_IhNSA_IhEEEEEEE11start_arrayEm, symObjAddr: 0xAC5C, symBinAddr: 0x13370, symSize: 0x2F4 }
  - { offsetInCU: 0xEA76A, offset: 0xFDA3D, size: 0x8, addend: 0x0, symName: __ZN8nlohmann16json_abi_v3_11_26detail28json_sax_dom_callback_parserINS0_10basic_jsonINSt3__13mapENS4_6vectorENS4_12basic_stringIcNS4_11char_traitsIcEENS4_9allocatorIcEEEEbxydSA_NS0_14adl_serializerENS6_IhNSA_IhEEEEEEE9end_arrayEv, symObjAddr: 0xAF50, symBinAddr: 0x13664, symSize: 0x168 }
  - { offsetInCU: 0xEABA0, offset: 0xFDE73, size: 0x8, addend: 0x0, symName: __ZN8nlohmann16json_abi_v3_11_26detail28json_sax_dom_callback_parserINS0_10basic_jsonINSt3__13mapENS4_6vectorENS4_12basic_stringIcNS4_11char_traitsIcEENS4_9allocatorIcEEEEbxydSA_NS0_14adl_serializerENS6_IhNSA_IhEEEEEEE12handle_valueIRxEENS4_4pairIbPSG_EEOT_b, symObjAddr: 0xE838, symBinAddr: 0x16F4C, symSize: 0x208 }
  - { offsetInCU: 0xEB346, offset: 0xFE619, size: 0x8, addend: 0x0, symName: __ZN8nlohmann16json_abi_v3_11_26detail28json_sax_dom_callback_parserINS0_10basic_jsonINSt3__13mapENS4_6vectorENS4_12basic_stringIcNS4_11char_traitsIcEENS4_9allocatorIcEEEEbxydSA_NS0_14adl_serializerENS6_IhNSA_IhEEEEEEE12handle_valueIDnEENS4_4pairIbPSG_EEOT_b, symObjAddr: 0xE634, symBinAddr: 0x16D48, symSize: 0x204 }
  - { offsetInCU: 0xEBAA5, offset: 0xFED78, size: 0x8, addend: 0x0, symName: __ZN8nlohmann16json_abi_v3_11_26detail28json_sax_dom_callback_parserINS0_10basic_jsonINSt3__13mapENS4_6vectorENS4_12basic_stringIcNS4_11char_traitsIcEENS4_9allocatorIcEEEEbxydSA_NS0_14adl_serializerENS6_IhNSA_IhEEEEEEE12start_objectEm, symObjAddr: 0xA520, symBinAddr: 0x12C34, symSize: 0x2F0 }
  - { offsetInCU: 0xEC397, offset: 0xFF66A, size: 0x8, addend: 0x0, symName: __ZN8nlohmann16json_abi_v3_11_26detail28json_sax_dom_callback_parserINS0_10basic_jsonINSt3__13mapENS4_6vectorENS4_12basic_stringIcNS4_11char_traitsIcEENS4_9allocatorIcEEEEbxydSA_NS0_14adl_serializerENS6_IhNSA_IhEEEEEEE10end_objectEv, symObjAddr: 0xA810, symBinAddr: 0x12F24, symSize: 0x28C }
  - { offsetInCU: 0xECC96, offset: 0xFFF69, size: 0x8, addend: 0x0, symName: __ZN8nlohmann16json_abi_v3_11_26detail28json_sax_dom_callback_parserINS0_10basic_jsonINSt3__13mapENS4_6vectorENS4_12basic_stringIcNS4_11char_traitsIcEENS4_9allocatorIcEEEEbxydSA_NS0_14adl_serializerENS6_IhNSA_IhEEEEEEE12handle_valueIRSC_EENS4_4pairIbPSG_EEOT_b, symObjAddr: 0xEA40, symBinAddr: 0x17154, symSize: 0x218 }
  - { offsetInCU: 0xED420, offset: 0x1006F3, size: 0x8, addend: 0x0, symName: __ZNK8nlohmann16json_abi_v3_11_26detail5lexerINS0_10basic_jsonINSt3__13mapENS4_6vectorENS4_12basic_stringIcNS4_11char_traitsIcEENS4_9allocatorIcEEEEbxydSA_NS0_14adl_serializerENS6_IhNSA_IhEEEEEENS1_20input_stream_adapterEE16get_token_stringEv, symObjAddr: 0x8E10, symBinAddr: 0x11524, symSize: 0xE4 }
  - { offsetInCU: 0xED679, offset: 0x10094C, size: 0x8, addend: 0x0, symName: __ZN8nlohmann16json_abi_v3_11_26detail28json_sax_dom_callback_parserINS0_10basic_jsonINSt3__13mapENS4_6vectorENS4_12basic_stringIcNS4_11char_traitsIcEENS4_9allocatorIcEEEEbxydSA_NS0_14adl_serializerENS6_IhNSA_IhEEEEEEE12handle_valueIRyEENS4_4pairIbPSG_EEOT_b, symObjAddr: 0xEC58, symBinAddr: 0x1736C, symSize: 0x20C }
  - { offsetInCU: 0xEDE1A, offset: 0x1010ED, size: 0x8, addend: 0x0, symName: __ZN8nlohmann16json_abi_v3_11_26detail28json_sax_dom_callback_parserINS0_10basic_jsonINSt3__13mapENS4_6vectorENS4_12basic_stringIcNS4_11char_traitsIcEENS4_9allocatorIcEEEEbxydSA_NS0_14adl_serializerENS6_IhNSA_IhEEEEEEE12handle_valueIRdEENS4_4pairIbPSG_EEOT_b, symObjAddr: 0xE21C, symBinAddr: 0x16930, symSize: 0x20C }
  - { offsetInCU: 0xEE5BD, offset: 0x101890, size: 0x8, addend: 0x0, symName: __ZN8nlohmann16json_abi_v3_11_26detail28json_sax_dom_callback_parserINS0_10basic_jsonINSt3__13mapENS4_6vectorENS4_12basic_stringIcNS4_11char_traitsIcEENS4_9allocatorIcEEEEbxydSA_NS0_14adl_serializerENS6_IhNSA_IhEEEEEEE3keyERSC_, symObjAddr: 0xAA9C, symBinAddr: 0x131B0, symSize: 0x1C0 }
  - { offsetInCU: 0xEEA65, offset: 0x101D38, size: 0x8, addend: 0x0, symName: __ZNSt3__16vectorIbNS_9allocatorIbEEE7reserveEm, symObjAddr: 0xA3FC, symBinAddr: 0x12B10, symSize: 0x110 }
  - { offsetInCU: 0xEEE73, offset: 0x102146, size: 0x8, addend: 0x0, symName: __ZNKSt3__16vectorIbNS_9allocatorIbEEE20__throw_length_errorB8ue170006Ev, symObjAddr: 0xA50C, symBinAddr: 0x12C20, symSize: 0x14 }
  - { offsetInCU: 0xEEE85, offset: 0x102158, size: 0x8, addend: 0x0, symName: __ZN8nlohmann16json_abi_v3_11_26detail28json_sax_dom_callback_parserINS0_10basic_jsonINSt3__13mapENS4_6vectorENS4_12basic_stringIcNS4_11char_traitsIcEENS4_9allocatorIcEEEEbxydSA_NS0_14adl_serializerENS6_IhNSA_IhEEEEEEE11parse_errorINS1_11parse_errorEEEbmRKSC_RKT_, symObjAddr: 0x8DBC, symBinAddr: 0x114D0, symSize: 0x54 }
  - { offsetInCU: 0xEEEDA, offset: 0x1021AD, size: 0x8, addend: 0x0, symName: __ZN8nlohmann16json_abi_v3_11_26detail12out_of_range6createIDnLi0EEES2_iRKNSt3__112basic_stringIcNS4_11char_traitsIcEENS4_9allocatorIcEEEET_, symObjAddr: 0xB10C, symBinAddr: 0x13820, symSize: 0x1D8 }
  - { offsetInCU: 0xEFD85, offset: 0x103058, size: 0x8, addend: 0x0, symName: __ZN8nlohmann16json_abi_v3_11_26detail28json_sax_dom_callback_parserINS0_10basic_jsonINSt3__13mapENS4_6vectorENS4_12basic_stringIcNS4_11char_traitsIcEENS4_9allocatorIcEEEEbxydSA_NS0_14adl_serializerENS6_IhNSA_IhEEEEEEE11parse_errorINS1_12out_of_rangeEEEbmRKSC_RKT_, symObjAddr: 0xB0B8, symBinAddr: 0x137CC, symSize: 0x54 }
  - { offsetInCU: 0xEFDF3, offset: 0x1030C6, size: 0x8, addend: 0x0, symName: __ZNKSt3__16vectorIbNS_9allocatorIbEEE20__throw_length_errorB8ue170006Ev, symObjAddr: 0xA50C, symBinAddr: 0x12C20, symSize: 0x14 }
  - { offsetInCU: 0xEFE1C, offset: 0x1030EF, size: 0x8, addend: 0x0, symName: __ZN8nlohmann16json_abi_v3_11_26detail28json_sax_dom_callback_parserINS0_10basic_jsonINSt3__13mapENS4_6vectorENS4_12basic_stringIcNS4_11char_traitsIcEENS4_9allocatorIcEEEEbxydSA_NS0_14adl_serializerENS6_IhNSA_IhEEEEEEE12start_objectEm, symObjAddr: 0xA520, symBinAddr: 0x12C34, symSize: 0x2F0 }
  - { offsetInCU: 0xEFE28, offset: 0x1030FB, size: 0x8, addend: 0x0, symName: __ZN8nlohmann16json_abi_v3_11_26detail11parse_errorC1ERKS2_, symObjAddr: 0xEE64, symBinAddr: 0x17578, symSize: 0x60 }
  - { offsetInCU: 0xEFF82, offset: 0x103255, size: 0x8, addend: 0x0, symName: __ZN8nlohmann16json_abi_v3_11_26detail11parse_error15position_stringERKNS1_10position_tE, symObjAddr: 0xF08C, symBinAddr: 0x177A0, symSize: 0xE8 }
  - { offsetInCU: 0xF050B, offset: 0x1037DE, size: 0x8, addend: 0x0, symName: __ZN8nlohmann16json_abi_v3_11_26detail11parse_errorD1Ev, symObjAddr: 0x9510, symBinAddr: 0x11C24, symSize: 0x34 }
  - { offsetInCU: 0xF0695, offset: 0x103968, size: 0x8, addend: 0x0, symName: __ZN8nlohmann16json_abi_v3_11_26detail19json_sax_dom_parserINS0_10basic_jsonINSt3__13mapENS4_6vectorENS4_12basic_stringIcNS4_11char_traitsIcEENS4_9allocatorIcEEEEbxydSA_NS0_14adl_serializerENS6_IhNSA_IhEEEEEEE12handle_valueIRbEEPSG_OT_, symObjAddr: 0xFEB4, symBinAddr: 0x185C8, symSize: 0x128 }
  - { offsetInCU: 0xF0C6A, offset: 0x103F3D, size: 0x8, addend: 0x0, symName: __ZN8nlohmann16json_abi_v3_11_26detail19json_sax_dom_parserINS0_10basic_jsonINSt3__13mapENS4_6vectorENS4_12basic_stringIcNS4_11char_traitsIcEENS4_9allocatorIcEEEEbxydSA_NS0_14adl_serializerENS6_IhNSA_IhEEEEEEE11start_arrayEm, symObjAddr: 0xF614, symBinAddr: 0x17D28, symSize: 0x22C }
  - { offsetInCU: 0xF13D2, offset: 0x1046A5, size: 0x8, addend: 0x0, symName: __ZN8nlohmann16json_abi_v3_11_26detail19json_sax_dom_parserINS0_10basic_jsonINSt3__13mapENS4_6vectorENS4_12basic_stringIcNS4_11char_traitsIcEENS4_9allocatorIcEEEEbxydSA_NS0_14adl_serializerENS6_IhNSA_IhEEEEEEE12handle_valueIRxEEPSG_OT_, symObjAddr: 0x10328, symBinAddr: 0x18A3C, symSize: 0x128 }
  - { offsetInCU: 0xF19D7, offset: 0x104CAA, size: 0x8, addend: 0x0, symName: __ZN8nlohmann16json_abi_v3_11_26detail19json_sax_dom_parserINS0_10basic_jsonINSt3__13mapENS4_6vectorENS4_12basic_stringIcNS4_11char_traitsIcEENS4_9allocatorIcEEEEbxydSA_NS0_14adl_serializerENS6_IhNSA_IhEEEEEEE12handle_valueIDnEEPSG_OT_, symObjAddr: 0x10108, symBinAddr: 0x1881C, symSize: 0x10C }
  - { offsetInCU: 0xF1F3E, offset: 0x105211, size: 0x8, addend: 0x0, symName: __ZN8nlohmann16json_abi_v3_11_26detail19json_sax_dom_parserINS0_10basic_jsonINSt3__13mapENS4_6vectorENS4_12basic_stringIcNS4_11char_traitsIcEENS4_9allocatorIcEEEEbxydSA_NS0_14adl_serializerENS6_IhNSA_IhEEEEEEE12start_objectEm, symObjAddr: 0xF3E8, symBinAddr: 0x17AFC, symSize: 0x22C }
  - { offsetInCU: 0xF26A6, offset: 0x105979, size: 0x8, addend: 0x0, symName: __ZN8nlohmann16json_abi_v3_11_26detail19json_sax_dom_parserINS0_10basic_jsonINSt3__13mapENS4_6vectorENS4_12basic_stringIcNS4_11char_traitsIcEENS4_9allocatorIcEEEEbxydSA_NS0_14adl_serializerENS6_IhNSA_IhEEEEEEE12handle_valueIRSC_EEPSG_OT_, symObjAddr: 0x1057C, symBinAddr: 0x18C90, symSize: 0x158 }
  - { offsetInCU: 0xF2C9D, offset: 0x105F70, size: 0x8, addend: 0x0, symName: __ZN8nlohmann16json_abi_v3_11_26detail19json_sax_dom_parserINS0_10basic_jsonINSt3__13mapENS4_6vectorENS4_12basic_stringIcNS4_11char_traitsIcEENS4_9allocatorIcEEEEbxydSA_NS0_14adl_serializerENS6_IhNSA_IhEEEEEEE12handle_valueIRyEEPSG_OT_, symObjAddr: 0x10834, symBinAddr: 0x18F48, symSize: 0x128 }
  - { offsetInCU: 0xF32A2, offset: 0x106575, size: 0x8, addend: 0x0, symName: __ZN8nlohmann16json_abi_v3_11_26detail19json_sax_dom_parserINS0_10basic_jsonINSt3__13mapENS4_6vectorENS4_12basic_stringIcNS4_11char_traitsIcEENS4_9allocatorIcEEEEbxydSA_NS0_14adl_serializerENS6_IhNSA_IhEEEEEEE12handle_valueIRdEEPSG_OT_, symObjAddr: 0xFC60, symBinAddr: 0x18374, symSize: 0x128 }
  - { offsetInCU: 0xF38C1, offset: 0x106B94, size: 0x8, addend: 0x0, symName: __ZNSt3__16__treeINS_12__value_typeINS_12basic_stringIcNS_11char_traitsIcEENS_9allocatorIcEEEEN8nlohmann16json_abi_v3_11_210basic_jsonINS_3mapENS_6vectorES7_bxydS5_NS9_14adl_serializerENSC_IhNS5_IhEEEEEEEENS_19__map_value_compareIS7_SH_NS_4lessIvEELb1EEENS5_ISH_EEE25__emplace_unique_key_argsIS7_JRKNS_21piecewise_construct_tENS_5tupleIJRKS7_EEENSS_IJEEEEEENS_4pairINS_15__tree_iteratorISH_PNS_11__tree_nodeISH_PvEElEEbEERKT_DpOT0_, symObjAddr: 0xDF40, symBinAddr: 0x16654, symSize: 0x1E8 }
  - { offsetInCU: 0xF4399, offset: 0x10766C, size: 0x8, addend: 0x0, symName: __ZN8nlohmann16json_abi_v3_11_26detail19json_sax_dom_parserINS0_10basic_jsonINSt3__13mapENS4_6vectorENS4_12basic_stringIcNS4_11char_traitsIcEENS4_9allocatorIcEEEEbxydSA_NS0_14adl_serializerENS6_IhNSA_IhEEEEEEE11parse_errorINS1_11parse_errorEEEbmRKSC_RKT_, symObjAddr: 0xA1E4, symBinAddr: 0x128F8, symSize: 0x54 }
  - { offsetInCU: 0xF43EE, offset: 0x1076C1, size: 0x8, addend: 0x0, symName: __ZN8nlohmann16json_abi_v3_11_26detail19json_sax_dom_parserINS0_10basic_jsonINSt3__13mapENS4_6vectorENS4_12basic_stringIcNS4_11char_traitsIcEENS4_9allocatorIcEEEEbxydSA_NS0_14adl_serializerENS6_IhNSA_IhEEEEEEE11parse_errorINS1_12out_of_rangeEEEbmRKSC_RKT_, symObjAddr: 0xF840, symBinAddr: 0x17F54, symSize: 0x54 }
  - { offsetInCU: 0xF4A4F, offset: 0x107D22, size: 0x8, addend: 0x0, symName: __ZN8nlohmann16json_abi_v3_11_26detail28json_sax_dom_callback_parserINS0_10basic_jsonINSt3__13mapENS4_6vectorENS4_12basic_stringIcNS4_11char_traitsIcEENS4_9allocatorIcEEEEbxydSA_NS0_14adl_serializerENS6_IhNSA_IhEEEEEEE12handle_valueINS1_7value_tEEENS4_4pairIbPSG_EEOT_b, symObjAddr: 0xB3CC, symBinAddr: 0x13AE0, symSize: 0x2A0 }
  - { offsetInCU: 0xF56EC, offset: 0x1089BF, size: 0x8, addend: 0x0, symName: __ZN8nlohmann16json_abi_v3_11_26detail12out_of_range6createIPNS0_10basic_jsonINSt3__13mapENS5_6vectorENS5_12basic_stringIcNS5_11char_traitsIcEENS5_9allocatorIcEEEEbxydSB_NS0_14adl_serializerENS7_IhNSB_IhEEEEEELi0EEES2_iRKSD_T_, symObjAddr: 0xB66C, symBinAddr: 0x13D80, symSize: 0x1D8 }
  - { offsetInCU: 0xF6586, offset: 0x109859, size: 0x8, addend: 0x0, symName: __ZNKSt3__16vectorIPN8nlohmann16json_abi_v3_11_210basic_jsonINS_3mapES0_NS_12basic_stringIcNS_11char_traitsIcEENS_9allocatorIcEEEEbxydS8_NS2_14adl_serializerENS0_IhNS8_IhEEEEEENS8_ISF_EEE20__throw_length_errorB8ue170006Ev, symObjAddr: 0xBAC4, symBinAddr: 0x141D8, symSize: 0x14 }
  - { offsetInCU: 0xF65AF, offset: 0x109882, size: 0x8, addend: 0x0, symName: __ZN8nlohmann16json_abi_v3_11_26detail12out_of_rangeD0Ev, symObjAddr: 0xBAD8, symBinAddr: 0x141EC, symSize: 0x38 }
  - { offsetInCU: 0xF68C3, offset: 0x109B96, size: 0x8, addend: 0x0, symName: __ZN8nlohmann16json_abi_v3_11_210basic_jsonINSt3__13mapENS2_6vectorENS2_12basic_stringIcNS2_11char_traitsIcEENS2_9allocatorIcEEEEbxydS8_NS0_14adl_serializerENS4_IhNS8_IhEEEEEC2ERKSE_, symObjAddr: 0xBF30, symBinAddr: 0x14644, symSize: 0x2D4 }
  - { offsetInCU: 0xF7B25, offset: 0x10ADF8, size: 0x8, addend: 0x0, symName: __ZNK8nlohmann16json_abi_v3_11_26detail9iter_implINS0_10basic_jsonINSt3__13mapENS4_6vectorENS4_12basic_stringIcNS4_11char_traitsIcEENS4_9allocatorIcEEEEbxydSA_NS0_14adl_serializerENS6_IhNSA_IhEEEEEEEeqISH_LDn0EEEbRKT_, symObjAddr: 0xCB6C, symBinAddr: 0x15280, symSize: 0x108 }
  - { offsetInCU: 0xF7D9A, offset: 0x10B06D, size: 0x8, addend: 0x0, symName: __ZNK8nlohmann16json_abi_v3_11_26detail9iter_implINS0_10basic_jsonINSt3__13mapENS4_6vectorENS4_12basic_stringIcNS4_11char_traitsIcEENS4_9allocatorIcEEEEbxydSA_NS0_14adl_serializerENS6_IhNSA_IhEEEEEEEptEv, symObjAddr: 0xBB10, symBinAddr: 0x14224, symSize: 0x100 }
  - { offsetInCU: 0xF7FD4, offset: 0x10B2A7, size: 0x8, addend: 0x0, symName: __ZN8nlohmann16json_abi_v3_11_210basic_jsonINSt3__13mapENS2_6vectorENS2_12basic_stringIcNS2_11char_traitsIcEENS2_9allocatorIcEEEEbxydS8_NS0_14adl_serializerENS4_IhNS8_IhEEEEE5eraseINS0_6detail9iter_implISE_EELi0EEET_SJ_, symObjAddr: 0xBC10, symBinAddr: 0x14324, symSize: 0x320 }
  - { offsetInCU: 0xF8ABE, offset: 0x10BD91, size: 0x8, addend: 0x0, symName: __ZN8nlohmann16json_abi_v3_11_26detail20external_constructorILNS1_7value_tE3EE9constructINS0_10basic_jsonINSt3__13mapENS7_6vectorENS7_12basic_stringIcNS7_11char_traitsIcEENS7_9allocatorIcEEEEbxydSD_NS0_14adl_serializerENS9_IhNSD_IhEEEEEEEEvRT_RKNSK_8string_tE, symObjAddr: 0xD614, symBinAddr: 0x15D28, symSize: 0xF4 }
  - { offsetInCU: 0xF9204, offset: 0x10C4D7, size: 0x8, addend: 0x0, symName: __ZN8nlohmann16json_abi_v3_11_26detail12out_of_rangeC1ERKS2_, symObjAddr: 0xE1C8, symBinAddr: 0x168DC, symSize: 0x54 }
  - { offsetInCU: 0xF9308, offset: 0x10C5DB, size: 0x8, addend: 0x0, symName: __ZN8nlohmann16json_abi_v3_11_26detail12out_of_rangeD1Ev, symObjAddr: 0xB398, symBinAddr: 0x13AAC, symSize: 0x34 }
  - { offsetInCU: 0xF95B6, offset: 0x10C889, size: 0x8, addend: 0x0, symName: __ZNSt3__16vectorIN8nlohmann16json_abi_v3_11_210basic_jsonINS_3mapES0_NS_12basic_stringIcNS_11char_traitsIcEENS_9allocatorIcEEEEbxydS8_NS2_14adl_serializerENS0_IhNS8_IhEEEEEENS8_ISE_EEE24__emplace_back_slow_pathIJSE_EEEvDpOT_, symObjAddr: 0xB930, symBinAddr: 0x14044, symSize: 0x12C }
  - { offsetInCU: 0xF9BCA, offset: 0x10CE9D, size: 0x8, addend: 0x0, symName: __ZNSt3__117bad_function_callD1Ev, symObjAddr: 0xB918, symBinAddr: 0x1402C, symSize: 0x4 }
  - { offsetInCU: 0xF9BED, offset: 0x10CEC0, size: 0x8, addend: 0x0, symName: __ZNSt3__117bad_function_callD1Ev, symObjAddr: 0xB918, symBinAddr: 0x1402C, symSize: 0x4 }
  - { offsetInCU: 0xF9C23, offset: 0x10CEF6, size: 0x8, addend: 0x0, symName: __ZNSt3__117bad_function_callD0Ev, symObjAddr: 0xB91C, symBinAddr: 0x14030, symSize: 0x14 }
  - { offsetInCU: 0xF9EB9, offset: 0x10D18C, size: 0x8, addend: 0x0, symName: __ZNKSt3__16vectorIN8nlohmann16json_abi_v3_11_210basic_jsonINS_3mapES0_NS_12basic_stringIcNS_11char_traitsIcEENS_9allocatorIcEEEEbxydS8_NS2_14adl_serializerENS0_IhNS8_IhEEEEEENS8_ISE_EEE20__throw_length_errorB8ue170006Ev, symObjAddr: 0xBAB0, symBinAddr: 0x141C4, symSize: 0x14 }
  - { offsetInCU: 0xF9EE2, offset: 0x10D1B5, size: 0x8, addend: 0x0, symName: __ZNKSt3__16vectorIPN8nlohmann16json_abi_v3_11_210basic_jsonINS_3mapES0_NS_12basic_stringIcNS_11char_traitsIcEENS_9allocatorIcEEEEbxydS8_NS2_14adl_serializerENS0_IhNS8_IhEEEEEENS8_ISF_EEE20__throw_length_errorB8ue170006Ev, symObjAddr: 0xBAC4, symBinAddr: 0x141D8, symSize: 0x14 }
  - { offsetInCU: 0xF9EEE, offset: 0x10D1C1, size: 0x8, addend: 0x0, symName: __ZNSt3__114__split_bufferIN8nlohmann16json_abi_v3_11_210basic_jsonINS_3mapENS_6vectorENS_12basic_stringIcNS_11char_traitsIcEENS_9allocatorIcEEEEbxydS9_NS2_14adl_serializerENS5_IhNS9_IhEEEEEERNS9_ISF_EEED1Ev, symObjAddr: 0xBA5C, symBinAddr: 0x14170, symSize: 0x54 }
  - { offsetInCU: 0xFA0B1, offset: 0x10D384, size: 0x8, addend: 0x0, symName: __ZN8nlohmann16json_abi_v3_11_26detail12out_of_rangeD0Ev, symObjAddr: 0xBAD8, symBinAddr: 0x141EC, symSize: 0x38 }
  - { offsetInCU: 0xFA1BE, offset: 0x10D491, size: 0x8, addend: 0x0, symName: __ZN8nlohmann16json_abi_v3_11_26detail16invalid_iterator6createIPNS0_10basic_jsonINSt3__13mapENS5_6vectorENS5_12basic_stringIcNS5_11char_traitsIcEENS5_9allocatorIcEEEEbxydSB_NS0_14adl_serializerENS7_IhNSB_IhEEEEEELi0EEES2_iRKSD_T_, symObjAddr: 0xCC74, symBinAddr: 0x15388, symSize: 0x1CC }
  - { offsetInCU: 0xFB238, offset: 0x10E50B, size: 0x8, addend: 0x0, symName: __ZNSt3__16__treeINS_12__value_typeINS_12basic_stringIcNS_11char_traitsIcEENS_9allocatorIcEEEEN8nlohmann16json_abi_v3_11_210basic_jsonINS_3mapENS_6vectorES7_bxydS5_NS9_14adl_serializerENSC_IhNS5_IhEEEEEEEENS_19__map_value_compareIS7_SH_NS_4lessIvEELb1EEENS5_ISH_EEE5eraseENS_21__tree_const_iteratorISH_PNS_11__tree_nodeISH_PvEElEE, symObjAddr: 0xD160, symBinAddr: 0x15874, symSize: 0xB8 }
  - { offsetInCU: 0xFB559, offset: 0x10E82C, size: 0x8, addend: 0x0, symName: __ZN8nlohmann16json_abi_v3_11_26detail10type_error6createIPNS0_10basic_jsonINSt3__13mapENS5_6vectorENS5_12basic_stringIcNS5_11char_traitsIcEENS5_9allocatorIcEEEEbxydSB_NS0_14adl_serializerENS7_IhNSB_IhEEEEEELi0EEES2_iRKSD_T_, symObjAddr: 0xCEAC, symBinAddr: 0x155C0, symSize: 0x1D4 }
  - { offsetInCU: 0xFD108, offset: 0x1103DB, size: 0x8, addend: 0x0, symName: __ZNSt3__16__treeINS_12__value_typeINS_12basic_stringIcNS_11char_traitsIcEENS_9allocatorIcEEEEN8nlohmann16json_abi_v3_11_210basic_jsonINS_3mapENS_6vectorES7_bxydS5_NS9_14adl_serializerENSC_IhNS5_IhEEEEEEEENS_19__map_value_compareIS7_SH_NS_4lessIvEELb1EEENS5_ISH_EEE12__find_equalIS7_EERPNS_16__tree_node_baseIPvEENS_21__tree_const_iteratorISH_PNS_11__tree_nodeISH_SQ_EElEERPNS_15__tree_end_nodeISS_EEST_RKT_, symObjAddr: 0xC204, symBinAddr: 0x14918, symSize: 0x3F8 }
  - { offsetInCU: 0xFDCF2, offset: 0x110FC5, size: 0x8, addend: 0x0, symName: __ZNSt3__16__treeINS_12__value_typeINS_12basic_stringIcNS_11char_traitsIcEENS_9allocatorIcEEEEN8nlohmann16json_abi_v3_11_210basic_jsonINS_3mapENS_6vectorES7_bxydS5_NS9_14adl_serializerENSC_IhNS5_IhEEEEEEEENS_19__map_value_compareIS7_SH_NS_4lessIvEELb1EEENS5_ISH_EEE16__construct_nodeIJRKNS_4pairIKS7_SG_EEEEENS_10unique_ptrINS_11__tree_nodeISH_PvEENS_22__tree_node_destructorINS5_ISX_EEEEEEDpOT_, symObjAddr: 0xC5FC, symBinAddr: 0x14D10, symSize: 0x108 }
  - { offsetInCU: 0xFE4AA, offset: 0x11177D, size: 0x8, addend: 0x0, symName: __ZNSt3__16vectorIN8nlohmann16json_abi_v3_11_210basic_jsonINS_3mapES0_NS_12basic_stringIcNS_11char_traitsIcEENS_9allocatorIcEEEEbxydS8_NS2_14adl_serializerENS0_IhNS8_IhEEEEEENS8_ISE_EEE16__init_with_sizeB8ue170006IPSE_SI_EEvT_T0_m, symObjAddr: 0xC98C, symBinAddr: 0x150A0, symSize: 0xF4 }
  - { offsetInCU: 0xFE893, offset: 0x111B66, size: 0x8, addend: 0x0, symName: __ZNKSt3__16vectorIhNS_9allocatorIhEEE20__throw_length_errorB8ue170006Ev, symObjAddr: 0xCB58, symBinAddr: 0x1526C, symSize: 0x14 }
  - { offsetInCU: 0xFE8BC, offset: 0x111B8F, size: 0x8, addend: 0x0, symName: __ZNK8nlohmann16json_abi_v3_11_26detail9iter_implINS0_10basic_jsonINSt3__13mapENS4_6vectorENS4_12basic_stringIcNS4_11char_traitsIcEENS4_9allocatorIcEEEEbxydSA_NS0_14adl_serializerENS6_IhNSA_IhEEEEEEEeqISH_LDn0EEEbRKT_, symObjAddr: 0xCB6C, symBinAddr: 0x15280, symSize: 0x108 }
  - { offsetInCU: 0xFE8C8, offset: 0x111B9B, size: 0x8, addend: 0x0, symName: __ZNSt3__16__treeINS_12__value_typeINS_12basic_stringIcNS_11char_traitsIcEENS_9allocatorIcEEEEN8nlohmann16json_abi_v3_11_210basic_jsonINS_3mapENS_6vectorES7_bxydS5_NS9_14adl_serializerENSC_IhNS5_IhEEEEEEEENS_19__map_value_compareIS7_SH_NS_4lessIvEELb1EEENS5_ISH_EEE7destroyEPNS_11__tree_nodeISH_PvEE, symObjAddr: 0xC914, symBinAddr: 0x15028, symSize: 0x78 }
  - { offsetInCU: 0xFEFC4, offset: 0x112297, size: 0x8, addend: 0x0, symName: __ZNSt3__110unique_ptrINS_11__tree_nodeINS_12__value_typeINS_12basic_stringIcNS_11char_traitsIcEENS_9allocatorIcEEEEN8nlohmann16json_abi_v3_11_210basic_jsonINS_3mapENS_6vectorES8_bxydS6_NSA_14adl_serializerENSD_IhNS6_IhEEEEEEEEPvEENS_22__tree_node_destructorINS6_ISK_EEEEED1B8ue170006Ev, symObjAddr: 0xC704, symBinAddr: 0x14E18, symSize: 0x5C }
  - { offsetInCU: 0xFF5ED, offset: 0x1128C0, size: 0x8, addend: 0x0, symName: __ZNSt3__128__exception_guard_exceptionsINS_29_AllocatorDestroyRangeReverseINS_9allocatorIN8nlohmann16json_abi_v3_11_210basic_jsonINS_3mapENS_6vectorENS_12basic_stringIcNS_11char_traitsIcEENS2_IcEEEEbxydS2_NS4_14adl_serializerENS7_IhNS2_IhEEEEEEEEPSG_EEED1B8ue170006Ev, symObjAddr: 0xCB00, symBinAddr: 0x15214, symSize: 0x58 }
  - { offsetInCU: 0xFF710, offset: 0x1129E3, size: 0x8, addend: 0x0, symName: __ZNSt3__128__exception_guard_exceptionsINS_6vectorIN8nlohmann16json_abi_v3_11_210basic_jsonINS_3mapES1_NS_12basic_stringIcNS_11char_traitsIcEENS_9allocatorIcEEEEbxydS9_NS3_14adl_serializerENS1_IhNS9_IhEEEEEENS9_ISF_EEE16__destroy_vectorEED1B8ue170006Ev, symObjAddr: 0xCA80, symBinAddr: 0x15194, symSize: 0x80 }
  - { offsetInCU: 0xFF9F1, offset: 0x112CC4, size: 0x8, addend: 0x0, symName: __ZN8nlohmann16json_abi_v3_11_26detail16invalid_iteratorD1Ev, symObjAddr: 0xCE40, symBinAddr: 0x15554, symSize: 0x34 }
  - { offsetInCU: 0xFFA73, offset: 0x112D46, size: 0x8, addend: 0x0, symName: __ZN8nlohmann16json_abi_v3_11_26detail16invalid_iteratorD0Ev, symObjAddr: 0xCE74, symBinAddr: 0x15588, symSize: 0x38 }
  - { offsetInCU: 0xFFB9A, offset: 0x112E6D, size: 0x8, addend: 0x0, symName: __ZN8nlohmann16json_abi_v3_11_26detail10type_errorD1Ev, symObjAddr: 0xD12C, symBinAddr: 0x15840, symSize: 0x34 }
  - { offsetInCU: 0xFFC4C, offset: 0x112F1F, size: 0x8, addend: 0x0, symName: __ZN8nlohmann16json_abi_v3_11_26detail10type_errorD0Ev, symObjAddr: 0xD5DC, symBinAddr: 0x15CF0, symSize: 0x38 }
  - { offsetInCU: 0x10003F, offset: 0x113312, size: 0x8, addend: 0x0, symName: __ZNSt3__16vectorIN8nlohmann16json_abi_v3_11_210basic_jsonINS_3mapES0_NS_12basic_stringIcNS_11char_traitsIcEENS_9allocatorIcEEEEbxydS8_NS2_14adl_serializerENS0_IhNS8_IhEEEEEENS8_ISE_EEE7reserveEm, symObjAddr: 0xDCE0, symBinAddr: 0x163F4, symSize: 0xD8 }
  - { offsetInCU: 0x1004B2, offset: 0x113785, size: 0x8, addend: 0x0, symName: __ZNSt3__16vectorIN8nlohmann16json_abi_v3_11_210basic_jsonINS_3mapES0_NS_12basic_stringIcNS_11char_traitsIcEENS_9allocatorIcEEEEbxydS8_NS2_14adl_serializerENS0_IhNS8_IhEEEEEENS8_ISE_EEE21__push_back_slow_pathISE_EEvOT_, symObjAddr: 0xDDB8, symBinAddr: 0x164CC, symSize: 0x12C }
  - { offsetInCU: 0x100A12, offset: 0x113CE5, size: 0x8, addend: 0x0, symName: __ZNSt3__16vectorIN8nlohmann16json_abi_v3_11_210basic_jsonINS_3mapES0_NS_12basic_stringIcNS_11char_traitsIcEENS_9allocatorIcEEEEbxydS8_NS2_14adl_serializerENS0_IhNS8_IhEEEEEENS8_ISE_EEED2B8ue170006Ev, symObjAddr: 0xDEE4, symBinAddr: 0x165F8, symSize: 0x5C }
  - { offsetInCU: 0x1012B2, offset: 0x114585, size: 0x8, addend: 0x0, symName: __ZN8nlohmann16json_abi_v3_11_26detail11parse_errorD0Ev, symObjAddr: 0xEEC4, symBinAddr: 0x175D8, symSize: 0x38 }
  - { offsetInCU: 0x101492, offset: 0x114765, size: 0x8, addend: 0x0, symName: __ZN8nlohmann16json_abi_v3_11_26detail19json_sax_dom_parserINS0_10basic_jsonINSt3__13mapENS4_6vectorENS4_12basic_stringIcNS4_11char_traitsIcEENS4_9allocatorIcEEEEbxydSA_NS0_14adl_serializerENS6_IhNSA_IhEEEEEEE12handle_valueINS1_7value_tEEEPSG_OT_, symObjAddr: 0xF894, symBinAddr: 0x17FA8, symSize: 0x268 }
  - { offsetInCU: 0x10255F, offset: 0x115832, size: 0x8, addend: 0x0, symName: __ZNSt3__16vectorIN8nlohmann16json_abi_v3_11_210basic_jsonINS_3mapES0_NS_12basic_stringIcNS_11char_traitsIcEENS_9allocatorIcEEEEbxydS8_NS2_14adl_serializerENS0_IhNS8_IhEEEEEENS8_ISE_EEE24__emplace_back_slow_pathIJNS2_6detail7value_tEEEEvDpOT_, symObjAddr: 0xFAFC, symBinAddr: 0x18210, symSize: 0x164 }
  - { offsetInCU: 0x102D9A, offset: 0x11606D, size: 0x8, addend: 0x0, symName: __ZNSt3__16vectorIN8nlohmann16json_abi_v3_11_210basic_jsonINS_3mapES0_NS_12basic_stringIcNS_11char_traitsIcEENS_9allocatorIcEEEEbxydS8_NS2_14adl_serializerENS0_IhNS8_IhEEEEEENS8_ISE_EEE24__emplace_back_slow_pathIJRdEEEvDpOT_, symObjAddr: 0xFD88, symBinAddr: 0x1849C, symSize: 0x12C }
  - { offsetInCU: 0x1034A7, offset: 0x11677A, size: 0x8, addend: 0x0, symName: __ZNSt3__16vectorIN8nlohmann16json_abi_v3_11_210basic_jsonINS_3mapES0_NS_12basic_stringIcNS_11char_traitsIcEENS_9allocatorIcEEEEbxydS8_NS2_14adl_serializerENS0_IhNS8_IhEEEEEENS8_ISE_EEE24__emplace_back_slow_pathIJRbEEEvDpOT_, symObjAddr: 0xFFDC, symBinAddr: 0x186F0, symSize: 0x12C }
  - { offsetInCU: 0x103BA2, offset: 0x116E75, size: 0x8, addend: 0x0, symName: __ZNSt3__16vectorIN8nlohmann16json_abi_v3_11_210basic_jsonINS_3mapES0_NS_12basic_stringIcNS_11char_traitsIcEENS_9allocatorIcEEEEbxydS8_NS2_14adl_serializerENS0_IhNS8_IhEEEEEENS8_ISE_EEE24__emplace_back_slow_pathIJDnEEEvDpOT_, symObjAddr: 0x10214, symBinAddr: 0x18928, symSize: 0x114 }
  - { offsetInCU: 0x104275, offset: 0x117548, size: 0x8, addend: 0x0, symName: __ZNSt3__16vectorIN8nlohmann16json_abi_v3_11_210basic_jsonINS_3mapES0_NS_12basic_stringIcNS_11char_traitsIcEENS_9allocatorIcEEEEbxydS8_NS2_14adl_serializerENS0_IhNS8_IhEEEEEENS8_ISE_EEE24__emplace_back_slow_pathIJRxEEEvDpOT_, symObjAddr: 0x10450, symBinAddr: 0x18B64, symSize: 0x12C }
  - { offsetInCU: 0x104980, offset: 0x117C53, size: 0x8, addend: 0x0, symName: __ZNSt3__16vectorIN8nlohmann16json_abi_v3_11_210basic_jsonINS_3mapES0_NS_12basic_stringIcNS_11char_traitsIcEENS_9allocatorIcEEEEbxydS8_NS2_14adl_serializerENS0_IhNS8_IhEEEEEENS8_ISE_EEE24__emplace_back_slow_pathIJRSA_EEEvDpOT_, symObjAddr: 0x106D4, symBinAddr: 0x18DE8, symSize: 0x160 }
  - { offsetInCU: 0x105164, offset: 0x118437, size: 0x8, addend: 0x0, symName: __ZNSt3__16vectorIN8nlohmann16json_abi_v3_11_210basic_jsonINS_3mapES0_NS_12basic_stringIcNS_11char_traitsIcEENS_9allocatorIcEEEEbxydS8_NS2_14adl_serializerENS0_IhNS8_IhEEEEEENS8_ISE_EEE24__emplace_back_slow_pathIJRyEEEvDpOT_, symObjAddr: 0x1095C, symBinAddr: 0x19070, symSize: 0x12C }
  - { offsetInCU: 0x105785, offset: 0x118A58, size: 0x8, addend: 0x0, symName: __ZN8nlohmann16json_abi_v3_11_26detail16invalid_iterator6createIPKNS0_10basic_jsonINSt3__13mapENS5_6vectorENS5_12basic_stringIcNS5_11char_traitsIcEENS5_9allocatorIcEEEEbxydSB_NS0_14adl_serializerENS7_IhNSB_IhEEEEEELi0EEES2_iRKSD_T_, symObjAddr: 0x10E64, symBinAddr: 0x19578, symSize: 0x1CC }
  - { offsetInCU: 0x106A51, offset: 0x119D24, size: 0x8, addend: 0x0, symName: __ZN8nlohmann16json_abi_v3_11_26detail10serializerINS0_10basic_jsonINSt3__13mapENS4_6vectorENS4_12basic_stringIcNS4_11char_traitsIcEENS4_9allocatorIcEEEEbxydSA_NS0_14adl_serializerENS6_IhNSA_IhEEEEEEE12dump_escapedERKSC_b, symObjAddr: 0x12320, symBinAddr: 0x1AA34, symSize: 0x55C }
  - { offsetInCU: 0x107579, offset: 0x11A84C, size: 0x8, addend: 0x0, symName: __ZNSt3__120__shared_ptr_emplaceIN8nlohmann16json_abi_v3_11_26detail21output_stream_adapterIcEENS_9allocatorIS5_EEED1Ev, symObjAddr: 0x122C0, symBinAddr: 0x1A9D4, symSize: 0x14 }
  - { offsetInCU: 0x10759C, offset: 0x11A86F, size: 0x8, addend: 0x0, symName: __ZNSt3__120__shared_ptr_emplaceIN8nlohmann16json_abi_v3_11_26detail21output_stream_adapterIcEENS_9allocatorIS5_EEED1Ev, symObjAddr: 0x122C0, symBinAddr: 0x1A9D4, symSize: 0x14 }
  - { offsetInCU: 0x1075D6, offset: 0x11A8A9, size: 0x8, addend: 0x0, symName: __ZNSt3__120__shared_ptr_emplaceIN8nlohmann16json_abi_v3_11_26detail21output_stream_adapterIcEENS_9allocatorIS5_EEED0Ev, symObjAddr: 0x122D4, symBinAddr: 0x1A9E8, symSize: 0x24 }
  - { offsetInCU: 0x107640, offset: 0x11A913, size: 0x8, addend: 0x0, symName: __ZNSt3__120__shared_ptr_emplaceIN8nlohmann16json_abi_v3_11_26detail21output_stream_adapterIcEENS_9allocatorIS5_EEE16__on_zero_sharedEv, symObjAddr: 0x122F8, symBinAddr: 0x1AA0C, symSize: 0xC }
  - { offsetInCU: 0x1076CB, offset: 0x11A99E, size: 0x8, addend: 0x0, symName: __ZNSt3__120__shared_ptr_emplaceIN8nlohmann16json_abi_v3_11_26detail21output_stream_adapterIcEENS_9allocatorIS5_EEE21__on_zero_shared_weakEv, symObjAddr: 0x12304, symBinAddr: 0x1AA18, symSize: 0x4 }
  - { offsetInCU: 0x1076FE, offset: 0x11A9D1, size: 0x8, addend: 0x0, symName: __ZNSt3__120__shared_ptr_emplaceIN8nlohmann16json_abi_v3_11_26detail21output_stream_adapterIcEENS_9allocatorIS5_EEE21__on_zero_shared_weakEv, symObjAddr: 0x12304, symBinAddr: 0x1AA18, symSize: 0x4 }
  - { offsetInCU: 0x107723, offset: 0x11A9F6, size: 0x8, addend: 0x0, symName: __ZNSt3__120__shared_ptr_emplaceIN8nlohmann16json_abi_v3_11_26detail21output_stream_adapterIcEENS_9allocatorIS5_EEE21__on_zero_shared_weakEv, symObjAddr: 0x12304, symBinAddr: 0x1AA18, symSize: 0x4 }
  - { offsetInCU: 0x107748, offset: 0x11AA1B, size: 0x8, addend: 0x0, symName: __ZNSt3__120__shared_ptr_emplaceIN8nlohmann16json_abi_v3_11_26detail21output_stream_adapterIcEENS_9allocatorIS5_EEE21__on_zero_shared_weakEv, symObjAddr: 0x12304, symBinAddr: 0x1AA18, symSize: 0x4 }
  - { offsetInCU: 0x107778, offset: 0x11AA4B, size: 0x8, addend: 0x0, symName: __ZNSt3__120__shared_ptr_emplaceIN8nlohmann16json_abi_v3_11_26detail21output_stream_adapterIcEENS_9allocatorIS5_EEE21__on_zero_shared_weakEv, symObjAddr: 0x12304, symBinAddr: 0x1AA18, symSize: 0x4 }
  - { offsetInCU: 0x1077A2, offset: 0x11AA75, size: 0x8, addend: 0x0, symName: __ZNSt3__120__shared_ptr_emplaceIN8nlohmann16json_abi_v3_11_26detail21output_stream_adapterIcEENS_9allocatorIS5_EEE21__on_zero_shared_weakEv, symObjAddr: 0x12304, symBinAddr: 0x1AA18, symSize: 0x4 }
  - { offsetInCU: 0x1077CF, offset: 0x11AAA2, size: 0x8, addend: 0x0, symName: __ZN8nlohmann16json_abi_v3_11_26detail21output_stream_adapterIcE15write_characterEc, symObjAddr: 0x12308, symBinAddr: 0x1AA1C, symSize: 0x8 }
  - { offsetInCU: 0x107805, offset: 0x11AAD8, size: 0x8, addend: 0x0, symName: __ZN8nlohmann16json_abi_v3_11_26detail21output_stream_adapterIcE16write_charactersEPKcm, symObjAddr: 0x12310, symBinAddr: 0x1AA24, symSize: 0x8 }
  - { offsetInCU: 0x10784A, offset: 0x11AB1D, size: 0x8, addend: 0x0, symName: __ZN8nlohmann16json_abi_v3_11_26detail21output_stream_adapterIcED1Ev, symObjAddr: 0x12318, symBinAddr: 0x1AA2C, symSize: 0x4 }
  - { offsetInCU: 0x107876, offset: 0x11AB49, size: 0x8, addend: 0x0, symName: __ZN8nlohmann16json_abi_v3_11_26detail21output_stream_adapterIcED0Ev, symObjAddr: 0x1231C, symBinAddr: 0x1AA30, symSize: 0x4 }
  - { offsetInCU: 0x107986, offset: 0x11AC59, size: 0x8, addend: 0x0, symName: __ZN8nlohmann16json_abi_v3_11_26detail10type_error6createIDnLi0EEES2_iRKNSt3__112basic_stringIcNS4_11char_traitsIcEENS4_9allocatorIcEEEET_, symObjAddr: 0x12AC4, symBinAddr: 0x1B1D8, symSize: 0x1D4 }
  - { offsetInCU: 0x108AF3, offset: 0x11BDC6, size: 0x8, addend: 0x0, symName: __ZN8nlohmann16json_abi_v3_11_210basic_jsonINSt3__13mapENS2_6vectorENS2_12basic_stringIcNS2_11char_traitsIcEENS2_9allocatorIcEEEEbxydS8_NS0_14adl_serializerENS4_IhNS8_IhEEEEEixESA_, symObjAddr: 0x2394C, symBinAddr: 0x2C060, symSize: 0x120 }
  - { offsetInCU: 0x109853, offset: 0x11CB26, size: 0x8, addend: 0x0, symName: __ZNKSt3__111basic_regexIcNS_12regex_traitsIcEEE8__searchINS_9allocatorINS_9sub_matchIPKcEEEEEEbS8_S8_RNS_13match_resultsIS8_T_EENS_15regex_constants15match_flag_typeE, symObjAddr: 0x1D8BC, symBinAddr: 0x25FD0, symSize: 0x274 }
  - { offsetInCU: 0x109C96, offset: 0x11CF69, size: 0x8, addend: 0x0, symName: __ZNSt3__113match_resultsINS_11__wrap_iterIPKcEENS_9allocatorINS_9sub_matchIS4_EEEEE8__assignB8ue170006IS3_NS5_INS6_IS3_EEEEEEvS4_S4_RKNS0_IT_T0_EEb, symObjAddr: 0x1DB30, symBinAddr: 0x26244, symSize: 0x1BC }
  - { offsetInCU: 0x10A496, offset: 0x11D769, size: 0x8, addend: 0x0, symName: __ZN7httplib10ClientImplC2ERKNSt3__112basic_stringIcNS1_11char_traitsIcEENS1_9allocatorIcEEEEiS9_S9_, symObjAddr: 0x20528, symBinAddr: 0x28C3C, symSize: 0x4A4 }
  - { offsetInCU: 0x10C150, offset: 0x11F423, size: 0x8, addend: 0x0, symName: __ZNSt3__111basic_regexIcNS_12regex_traitsIcEEEC2B8ue170006EPKcNS_15regex_constants18syntax_option_typeE, symObjAddr: 0x14388, symBinAddr: 0x1CA9C, symSize: 0xC0 }
  - { offsetInCU: 0x10C3A5, offset: 0x11F678, size: 0x8, addend: 0x0, symName: __ZNSt3__111basic_regexIcNS_12regex_traitsIcEEED1Ev, symObjAddr: 0x14328, symBinAddr: 0x1CA3C, symSize: 0x60 }
  - { offsetInCU: 0x10C55D, offset: 0x11F830, size: 0x8, addend: 0x0, symName: __ZNSt3__111basic_regexIcNS_12regex_traitsIcEEE7__parseIPKcEET_S7_S7_, symObjAddr: 0x144A8, symBinAddr: 0x1CBBC, symSize: 0x34C }
  - { offsetInCU: 0x10CE96, offset: 0x120169, size: 0x8, addend: 0x0, symName: __ZNSt3__110shared_ptrINS_13__empty_stateIcEEED1B8ue170006Ev, symObjAddr: 0x14448, symBinAddr: 0x1CB5C, symSize: 0x60 }
  - { offsetInCU: 0x10D6D6, offset: 0x1209A9, size: 0x8, addend: 0x0, symName: __ZNSt3__111basic_regexIcNS_12regex_traitsIcEEE13__parse_egrepIPKcEET_S7_S7_, symObjAddr: 0x14E7C, symBinAddr: 0x1D590, symSize: 0x1B8 }
  - { offsetInCU: 0x10DC3D, offset: 0x120F10, size: 0x8, addend: 0x0, symName: __ZNSt3__111basic_regexIcNS_12regex_traitsIcEEE24__parse_extended_reg_expIPKcEET_S7_S7_, symObjAddr: 0x14B58, symBinAddr: 0x1D26C, symSize: 0x16C }
  - { offsetInCU: 0x10DF90, offset: 0x121263, size: 0x8, addend: 0x0, symName: __ZNSt3__111basic_regexIcNS_12regex_traitsIcEEE12__parse_grepIPKcEET_S7_S7_, symObjAddr: 0x14CC4, symBinAddr: 0x1D3D8, symSize: 0x1B8 }
  - { offsetInCU: 0x10DFA5, offset: 0x121278, size: 0x8, addend: 0x0, symName: __ZNSt3__111basic_regexIcNS_12regex_traitsIcEEE19__parse_alternativeIPKcEET_S7_S7_, symObjAddr: 0x15268, symBinAddr: 0x1D97C, symSize: 0xA0 }
  - { offsetInCU: 0x10E0AF, offset: 0x121382, size: 0x8, addend: 0x0, symName: __ZNSt3__111basic_regexIcNS_12regex_traitsIcEEE21__parse_basic_reg_expIPKcEET_S7_S7_, symObjAddr: 0x149E0, symBinAddr: 0x1D0F4, symSize: 0x178 }
  - { offsetInCU: 0x10E43F, offset: 0x121712, size: 0x8, addend: 0x0, symName: __ZNSt3__111basic_regexIcNS_12regex_traitsIcEEE24__parse_extended_reg_expIPKcEET_S7_S7_, symObjAddr: 0x14B58, symBinAddr: 0x1D26C, symSize: 0x16C }
  - { offsetInCU: 0x10E454, offset: 0x121727, size: 0x8, addend: 0x0, symName: __ZNSt3__111basic_regexIcNS_12regex_traitsIcEEE12__parse_grepIPKcEET_S7_S7_, symObjAddr: 0x14CC4, symBinAddr: 0x1D3D8, symSize: 0x1B8 }
  - { offsetInCU: 0x10EA02, offset: 0x121CD5, size: 0x8, addend: 0x0, symName: __ZNSt3__111basic_regexIcNS_12regex_traitsIcEEE16__parse_ecma_expIPKcEET_S7_S7_, symObjAddr: 0x14840, symBinAddr: 0x1CF54, symSize: 0x1A0 }
  - { offsetInCU: 0x10EE6D, offset: 0x122140, size: 0x8, addend: 0x0, symName: __ZNSt3__111basic_regexIcNS_12regex_traitsIcEEE12__parse_termIPKcEET_S7_S7_, symObjAddr: 0x15308, symBinAddr: 0x1DA1C, symSize: 0x94 }
  - { offsetInCU: 0x10F12B, offset: 0x1223FE, size: 0x8, addend: 0x0, symName: __ZNSt3__111basic_regexIcNS_12regex_traitsIcEEE18__parse_nondupl_REIPKcEET_S7_S7_, symObjAddr: 0x1CDE4, symBinAddr: 0x254F8, symSize: 0x230 }
  - { offsetInCU: 0x10F68A, offset: 0x12295D, size: 0x8, addend: 0x0, symName: __ZNSt3__111basic_regexIcNS_12regex_traitsIcEEE22__parse_RE_dupl_symbolIPKcEET_S7_S7_PNS_16__owns_one_stateIcEEjj, symObjAddr: 0x1D014, symBinAddr: 0x25728, symSize: 0x284 }
  - { offsetInCU: 0x10F69F, offset: 0x122972, size: 0x8, addend: 0x0, symName: __ZNSt3__111basic_regexIcNS_12regex_traitsIcEEE22__parse_RE_dupl_symbolIPKcEET_S7_S7_PNS_16__owns_one_stateIcEEjj, symObjAddr: 0x1D014, symBinAddr: 0x25728, symSize: 0x284 }
  - { offsetInCU: 0x10FC5D, offset: 0x122F30, size: 0x8, addend: 0x0, symName: __ZNSt3__111basic_regexIcNS_12regex_traitsIcEEE32__parse_one_char_or_coll_elem_REIPKcEET_S7_S7_, symObjAddr: 0x1D298, symBinAddr: 0x259AC, symSize: 0x140 }
  - { offsetInCU: 0x10FCB7, offset: 0x122F8A, size: 0x8, addend: 0x0, symName: __ZNSt3__111basic_regexIcNS_12regex_traitsIcEEE22__parse_ERE_expressionIPKcEET_S7_S7_, symObjAddr: 0x1D500, symBinAddr: 0x25C14, symSize: 0x284 }
  - { offsetInCU: 0x1101A9, offset: 0x12347C, size: 0x8, addend: 0x0, symName: __ZNSt3__111basic_regexIcNS_12regex_traitsIcEEE20__parse_ORD_CHAR_EREIPKcEET_S7_S7_, symObjAddr: 0x1D784, symBinAddr: 0x25E98, symSize: 0x78 }
  - { offsetInCU: 0x1101C3, offset: 0x123496, size: 0x8, addend: 0x0, symName: __ZNSt3__111__end_stateIcED1Ev, symObjAddr: 0x15080, symBinAddr: 0x1D794, symSize: 0x4 }
  - { offsetInCU: 0x1101EF, offset: 0x1234C2, size: 0x8, addend: 0x0, symName: __ZNSt3__111__end_stateIcED0Ev, symObjAddr: 0x15084, symBinAddr: 0x1D798, symSize: 0x4 }
  - { offsetInCU: 0x110210, offset: 0x1234E3, size: 0x8, addend: 0x0, symName: __ZNKSt3__111__end_stateIcE6__execERNS_7__stateIcEE, symObjAddr: 0x15088, symBinAddr: 0x1D79C, symSize: 0xC }
  - { offsetInCU: 0x110246, offset: 0x123519, size: 0x8, addend: 0x0, symName: __ZNKSt3__16__nodeIcE12__exec_splitEbRNS_7__stateIcEE, symObjAddr: 0x15094, symBinAddr: 0x1D7A8, symSize: 0x4 }
  - { offsetInCU: 0x110286, offset: 0x123559, size: 0x8, addend: 0x0, symName: __ZNKSt3__16__nodeIcE6__execERNS_7__stateIcEE, symObjAddr: 0x15098, symBinAddr: 0x1D7AC, symSize: 0x4 }
  - { offsetInCU: 0x1102D2, offset: 0x1235A5, size: 0x8, addend: 0x0, symName: __ZNSt3__120__shared_ptr_pointerIPNS_13__empty_stateIcEENS_10shared_ptrIS2_E27__shared_ptr_default_deleteIS2_S2_EENS_9allocatorIS2_EEED1Ev, symObjAddr: 0x1509C, symBinAddr: 0x1D7B0, symSize: 0x4 }
  - { offsetInCU: 0x1102F5, offset: 0x1235C8, size: 0x8, addend: 0x0, symName: __ZNSt3__120__shared_ptr_pointerIPNS_13__empty_stateIcEENS_10shared_ptrIS2_E27__shared_ptr_default_deleteIS2_S2_EENS_9allocatorIS2_EEED1Ev, symObjAddr: 0x1509C, symBinAddr: 0x1D7B0, symSize: 0x4 }
  - { offsetInCU: 0x11032D, offset: 0x123600, size: 0x8, addend: 0x0, symName: __ZNSt3__120__shared_ptr_pointerIPNS_13__empty_stateIcEENS_10shared_ptrIS2_E27__shared_ptr_default_deleteIS2_S2_EENS_9allocatorIS2_EEED0Ev, symObjAddr: 0x150A0, symBinAddr: 0x1D7B4, symSize: 0x14 }
  - { offsetInCU: 0x110394, offset: 0x123667, size: 0x8, addend: 0x0, symName: __ZNSt3__120__shared_ptr_pointerIPNS_13__empty_stateIcEENS_10shared_ptrIS2_E27__shared_ptr_default_deleteIS2_S2_EENS_9allocatorIS2_EEE16__on_zero_sharedEv, symObjAddr: 0x150B4, symBinAddr: 0x1D7C8, symSize: 0x18 }
  - { offsetInCU: 0x110442, offset: 0x123715, size: 0x8, addend: 0x0, symName: __ZNKSt3__120__shared_ptr_pointerIPNS_13__empty_stateIcEENS_10shared_ptrIS2_E27__shared_ptr_default_deleteIS2_S2_EENS_9allocatorIS2_EEE13__get_deleterERKSt9type_info, symObjAddr: 0x150CC, symBinAddr: 0x1D7E0, symSize: 0x74 }
  - { offsetInCU: 0x11051F, offset: 0x1237F2, size: 0x8, addend: 0x0, symName: __ZNSt3__120__shared_ptr_pointerIPNS_13__empty_stateIcEENS_10shared_ptrIS2_E27__shared_ptr_default_deleteIS2_S2_EENS_9allocatorIS2_EEE21__on_zero_shared_weakEv, symObjAddr: 0x15140, symBinAddr: 0x1D854, symSize: 0x4 }
  - { offsetInCU: 0x110554, offset: 0x123827, size: 0x8, addend: 0x0, symName: __ZNSt3__120__shared_ptr_pointerIPNS_13__empty_stateIcEENS_10shared_ptrIS2_E27__shared_ptr_default_deleteIS2_S2_EENS_9allocatorIS2_EEE21__on_zero_shared_weakEv, symObjAddr: 0x15140, symBinAddr: 0x1D854, symSize: 0x4 }
  - { offsetInCU: 0x110579, offset: 0x12384C, size: 0x8, addend: 0x0, symName: __ZNSt3__120__shared_ptr_pointerIPNS_13__empty_stateIcEENS_10shared_ptrIS2_E27__shared_ptr_default_deleteIS2_S2_EENS_9allocatorIS2_EEE21__on_zero_shared_weakEv, symObjAddr: 0x15140, symBinAddr: 0x1D854, symSize: 0x4 }
  - { offsetInCU: 0x1105A8, offset: 0x12387B, size: 0x8, addend: 0x0, symName: __ZNSt3__120__shared_ptr_pointerIPNS_13__empty_stateIcEENS_10shared_ptrIS2_E27__shared_ptr_default_deleteIS2_S2_EENS_9allocatorIS2_EEE21__on_zero_shared_weakEv, symObjAddr: 0x15140, symBinAddr: 0x1D854, symSize: 0x4 }
  - { offsetInCU: 0x1105D1, offset: 0x1238A4, size: 0x8, addend: 0x0, symName: __ZNSt3__120__shared_ptr_pointerIPNS_13__empty_stateIcEENS_10shared_ptrIS2_E27__shared_ptr_default_deleteIS2_S2_EENS_9allocatorIS2_EEE21__on_zero_shared_weakEv, symObjAddr: 0x15140, symBinAddr: 0x1D854, symSize: 0x4 }
  - { offsetInCU: 0x1105FD, offset: 0x1238D0, size: 0x8, addend: 0x0, symName: __ZNSt3__113__empty_stateIcED1Ev, symObjAddr: 0x15144, symBinAddr: 0x1D858, symSize: 0x44 }
  - { offsetInCU: 0x11066A, offset: 0x12393D, size: 0x8, addend: 0x0, symName: __ZNSt3__113__empty_stateIcED0Ev, symObjAddr: 0x15188, symBinAddr: 0x1D89C, symSize: 0x44 }
  - { offsetInCU: 0x110711, offset: 0x1239E4, size: 0x8, addend: 0x0, symName: __ZNKSt3__113__empty_stateIcE6__execERNS_7__stateIcEE, symObjAddr: 0x151CC, symBinAddr: 0x1D8E0, symSize: 0x14 }
  - { offsetInCU: 0x110766, offset: 0x123A39, size: 0x8, addend: 0x0, symName: __ZNSt3__116__owns_one_stateIcED1Ev, symObjAddr: 0x151E0, symBinAddr: 0x1D8F4, symSize: 0x44 }
  - { offsetInCU: 0x1107D0, offset: 0x123AA3, size: 0x8, addend: 0x0, symName: __ZNSt3__116__owns_one_stateIcED0Ev, symObjAddr: 0x15224, symBinAddr: 0x1D938, symSize: 0x44 }
  - { offsetInCU: 0x1108A6, offset: 0x123B79, size: 0x8, addend: 0x0, symName: __ZNSt3__111basic_regexIcNS_12regex_traitsIcEEE23__parse_ERE_dupl_symbolIPKcEET_S7_S7_PNS_16__owns_one_stateIcEEjj, symObjAddr: 0x158EC, symBinAddr: 0x1E000, symSize: 0x3F4 }
  - { offsetInCU: 0x110E5F, offset: 0x124132, size: 0x8, addend: 0x0, symName: __ZNSt3__111basic_regexIcNS_12regex_traitsIcEEEC1B8ue170006Ev, symObjAddr: 0x15CE0, symBinAddr: 0x1E3F4, symSize: 0x6C }
  - { offsetInCU: 0x110E74, offset: 0x124147, size: 0x8, addend: 0x0, symName: __ZNSt3__111basic_regexIcNS_12regex_traitsIcEEE17__parse_assertionIPKcEET_S7_S7_, symObjAddr: 0x1539C, symBinAddr: 0x1DAB0, symSize: 0x304 }
  - { offsetInCU: 0x1114B0, offset: 0x124783, size: 0x8, addend: 0x0, symName: __ZNSt3__111basic_regexIcNS_12regex_traitsIcEEE12__parse_atomIPKcEET_S7_S7_, symObjAddr: 0x156A0, symBinAddr: 0x1DDB4, symSize: 0x24C }
  - { offsetInCU: 0x11189E, offset: 0x124B71, size: 0x8, addend: 0x0, symName: __ZNSt3__111basic_regexIcNS_12regex_traitsIcEEE23__parse_ERE_dupl_symbolIPKcEET_S7_S7_PNS_16__owns_one_stateIcEEjj, symObjAddr: 0x158EC, symBinAddr: 0x1E000, symSize: 0x3F4 }
  - { offsetInCU: 0x1119B0, offset: 0x124C83, size: 0x8, addend: 0x0, symName: __ZNSt3__111basic_regexIcNS_12regex_traitsIcEEEC1B8ue170006Ev, symObjAddr: 0x15CE0, symBinAddr: 0x1E3F4, symSize: 0x6C }
  - { offsetInCU: 0x111A83, offset: 0x124D56, size: 0x8, addend: 0x0, symName: __ZNSt3__111basic_regexIcNS_12regex_traitsIcEEE16__push_lookaheadERKS3_bj, symObjAddr: 0x15D4C, symBinAddr: 0x1E460, symSize: 0xB0 }
  - { offsetInCU: 0x111E90, offset: 0x125163, size: 0x8, addend: 0x0, symName: __ZNSt3__111basic_regexIcNS_12regex_traitsIcEEE26__parse_bracket_expressionIPKcEET_S7_S7_, symObjAddr: 0x173DC, symBinAddr: 0x1FAF0, symSize: 0x150 }
  - { offsetInCU: 0x11207B, offset: 0x12534E, size: 0x8, addend: 0x0, symName: __ZNSt3__111basic_regexIcNS_12regex_traitsIcEEE19__parse_atom_escapeIPKcEET_S7_S7_, symObjAddr: 0x17278, symBinAddr: 0x1F98C, symSize: 0x164 }
  - { offsetInCU: 0x112230, offset: 0x125503, size: 0x8, addend: 0x0, symName: __ZNSt3__111basic_regexIcNS_12regex_traitsIcEEE26__parse_bracket_expressionIPKcEET_S7_S7_, symObjAddr: 0x173DC, symBinAddr: 0x1FAF0, symSize: 0x150 }
  - { offsetInCU: 0x112245, offset: 0x125518, size: 0x8, addend: 0x0, symName: __ZNSt3__111basic_regexIcNS_12regex_traitsIcEEE25__parse_pattern_characterIPKcEET_S7_S7_, symObjAddr: 0x17578, symBinAddr: 0x1FC8C, symSize: 0x70 }
  - { offsetInCU: 0x112407, offset: 0x1256DA, size: 0x8, addend: 0x0, symName: __ZNSt3__111basic_regexIcNS_12regex_traitsIcEEE11__push_loopEmmPNS_16__owns_one_stateIcEEmmb, symObjAddr: 0x1C614, symBinAddr: 0x24D28, symSize: 0x138 }
  - { offsetInCU: 0x1129CF, offset: 0x125CA2, size: 0x8, addend: 0x0, symName: __ZNSt3__120__l_anchor_multilineIcED1Ev, symObjAddr: 0x15E48, symBinAddr: 0x1E55C, symSize: 0x44 }
  - { offsetInCU: 0x112A59, offset: 0x125D2C, size: 0x8, addend: 0x0, symName: __ZNSt3__120__l_anchor_multilineIcED0Ev, symObjAddr: 0x15E8C, symBinAddr: 0x1E5A0, symSize: 0x44 }
  - { offsetInCU: 0x112AF0, offset: 0x125DC3, size: 0x8, addend: 0x0, symName: __ZNKSt3__120__l_anchor_multilineIcE6__execERNS_7__stateIcEE, symObjAddr: 0x15ED0, symBinAddr: 0x1E5E4, symSize: 0x60 }
  - { offsetInCU: 0x112B43, offset: 0x125E16, size: 0x8, addend: 0x0, symName: __ZNSt3__120__r_anchor_multilineIcED1Ev, symObjAddr: 0x15F30, symBinAddr: 0x1E644, symSize: 0x44 }
  - { offsetInCU: 0x112BCD, offset: 0x125EA0, size: 0x8, addend: 0x0, symName: __ZNSt3__120__r_anchor_multilineIcED0Ev, symObjAddr: 0x15F74, symBinAddr: 0x1E688, symSize: 0x44 }
  - { offsetInCU: 0x112C64, offset: 0x125F37, size: 0x8, addend: 0x0, symName: __ZNKSt3__120__r_anchor_multilineIcE6__execERNS_7__stateIcEE, symObjAddr: 0x15FB8, symBinAddr: 0x1E6CC, symSize: 0x50 }
  - { offsetInCU: 0x112CB7, offset: 0x125F8A, size: 0x8, addend: 0x0, symName: __ZNSt3__115__word_boundaryIcNS_12regex_traitsIcEEED1Ev, symObjAddr: 0x16008, symBinAddr: 0x1E71C, symSize: 0x58 }
  - { offsetInCU: 0x112D7F, offset: 0x126052, size: 0x8, addend: 0x0, symName: __ZNSt3__115__word_boundaryIcNS_12regex_traitsIcEEED0Ev, symObjAddr: 0x16060, symBinAddr: 0x1E774, symSize: 0x58 }
  - { offsetInCU: 0x112EB2, offset: 0x126185, size: 0x8, addend: 0x0, symName: __ZNKSt3__115__word_boundaryIcNS_12regex_traitsIcEEE6__execERNS_7__stateIcEE, symObjAddr: 0x160B8, symBinAddr: 0x1E7CC, symSize: 0x150 }
  - { offsetInCU: 0x113053, offset: 0x126326, size: 0x8, addend: 0x0, symName: __ZNSt3__111__lookaheadIcNS_12regex_traitsIcEEED1Ev, symObjAddr: 0x16208, symBinAddr: 0x1E91C, symSize: 0x98 }
  - { offsetInCU: 0x113209, offset: 0x1264DC, size: 0x8, addend: 0x0, symName: __ZNSt3__111__lookaheadIcNS_12regex_traitsIcEEED0Ev, symObjAddr: 0x162A0, symBinAddr: 0x1E9B4, symSize: 0x98 }
  - { offsetInCU: 0x113498, offset: 0x12676B, size: 0x8, addend: 0x0, symName: __ZNKSt3__111__lookaheadIcNS_12regex_traitsIcEEE6__execERNS_7__stateIcEE, symObjAddr: 0x16338, symBinAddr: 0x1EA4C, symSize: 0x18C }
  - { offsetInCU: 0x113A5F, offset: 0x126D32, size: 0x8, addend: 0x0, symName: __ZNSt3__16vectorINS_9sub_matchIPKcEENS_9allocatorIS4_EEE6assignEmRKS4_, symObjAddr: 0x16920, symBinAddr: 0x1F034, symSize: 0x19C }
  - { offsetInCU: 0x11407D, offset: 0x127350, size: 0x8, addend: 0x0, symName: __ZNKSt3__16vectorINS_9sub_matchIPKcEENS_9allocatorIS4_EEE20__throw_length_errorB8ue170006Ev, symObjAddr: 0x16ABC, symBinAddr: 0x1F1D0, symSize: 0x14 }
  - { offsetInCU: 0x11408F, offset: 0x127362, size: 0x8, addend: 0x0, symName: __ZNKSt3__111basic_regexIcNS_12regex_traitsIcEEE21__match_at_start_ecmaINS_9allocatorINS_9sub_matchIPKcEEEEEEbS8_S8_RNS_13match_resultsIS8_T_EENS_15regex_constants15match_flag_typeEb, symObjAddr: 0x164C4, symBinAddr: 0x1EBD8, symSize: 0x45C }
  - { offsetInCU: 0x115943, offset: 0x128C16, size: 0x8, addend: 0x0, symName: __ZNSt3__16vectorINS_7__stateIcEENS_9allocatorIS2_EEE21__push_back_slow_pathIS2_EEvOT_, symObjAddr: 0x16C2C, symBinAddr: 0x1F340, symSize: 0x1E4 }
  - { offsetInCU: 0x1162B2, offset: 0x129585, size: 0x8, addend: 0x0, symName: __ZNKSt3__16vectorINS_7__stateIcEENS_9allocatorIS2_EEE20__throw_length_errorB8ue170006Ev, symObjAddr: 0x16E10, symBinAddr: 0x1F524, symSize: 0x14 }
  - { offsetInCU: 0x1162C7, offset: 0x12959A, size: 0x8, addend: 0x0, symName: __ZNSt3__16vectorINS_9sub_matchIPKcEENS_9allocatorIS4_EEE8__appendEmRKS4_, symObjAddr: 0x16E24, symBinAddr: 0x1F538, symSize: 0x198 }
  - { offsetInCU: 0x116898, offset: 0x129B6B, size: 0x8, addend: 0x0, symName: __ZNSt3__16vectorINS_4pairImPKcEENS_9allocatorIS4_EEE8__appendEm, symObjAddr: 0x16FBC, symBinAddr: 0x1F6D0, symSize: 0x128 }
  - { offsetInCU: 0x1168A4, offset: 0x129B77, size: 0x8, addend: 0x0, symName: __ZNSt3__16vectorINS_4pairImPKcEENS_9allocatorIS4_EEE8__appendEm, symObjAddr: 0x16FBC, symBinAddr: 0x1F6D0, symSize: 0x128 }
  - { offsetInCU: 0x116E0C, offset: 0x12A0DF, size: 0x8, addend: 0x0, symName: __ZNKSt3__16vectorINS_4pairImPKcEENS_9allocatorIS4_EEE20__throw_length_errorB8ue170006Ev, symObjAddr: 0x170E4, symBinAddr: 0x1F7F8, symSize: 0x14 }
  - { offsetInCU: 0x116E18, offset: 0x12A0EB, size: 0x8, addend: 0x0, symName: __ZNSt3__17__stateIcEC2ERKS1_, symObjAddr: 0x170F8, symBinAddr: 0x1F80C, symSize: 0x180 }
  - { offsetInCU: 0x117508, offset: 0x12A7DB, size: 0x8, addend: 0x0, symName: __ZNSt3__17__stateIcED1Ev, symObjAddr: 0x16AD0, symBinAddr: 0x1F1E4, symSize: 0x40 }
  - { offsetInCU: 0x1177F2, offset: 0x12AAC5, size: 0x8, addend: 0x0, symName: __ZNSt3__16vectorINS_7__stateIcEENS_9allocatorIS2_EEED1B8ue170006Ev, symObjAddr: 0x16BA8, symBinAddr: 0x1F2BC, symSize: 0x84 }
  - { offsetInCU: 0x117F09, offset: 0x12B1DC, size: 0x8, addend: 0x0, symName: __ZNKSt3__16vectorINS_9sub_matchIPKcEENS_9allocatorIS4_EEE20__throw_length_errorB8ue170006Ev, symObjAddr: 0x16ABC, symBinAddr: 0x1F1D0, symSize: 0x14 }
  - { offsetInCU: 0x117F32, offset: 0x12B205, size: 0x8, addend: 0x0, symName: __ZNSt3__17__stateIcED1Ev, symObjAddr: 0x16AD0, symBinAddr: 0x1F1E4, symSize: 0x40 }
  - { offsetInCU: 0x11816B, offset: 0x12B43E, size: 0x8, addend: 0x0, symName: __ZNKSt3__16vectorINS_7__stateIcEENS_9allocatorIS2_EEE20__throw_length_errorB8ue170006Ev, symObjAddr: 0x16E10, symBinAddr: 0x1F524, symSize: 0x14 }
  - { offsetInCU: 0x118194, offset: 0x12B467, size: 0x8, addend: 0x0, symName: __ZNSt3__16vectorINS_9sub_matchIPKcEENS_9allocatorIS4_EEE8__appendEmRKS4_, symObjAddr: 0x16E24, symBinAddr: 0x1F538, symSize: 0x198 }
  - { offsetInCU: 0x1187CE, offset: 0x12BAA1, size: 0x8, addend: 0x0, symName: __ZNKSt3__16vectorINS_4pairImPKcEENS_9allocatorIS4_EEE20__throw_length_errorB8ue170006Ev, symObjAddr: 0x170E4, symBinAddr: 0x1F7F8, symSize: 0x14 }
  - { offsetInCU: 0x1187F7, offset: 0x12BACA, size: 0x8, addend: 0x0, symName: __ZNSt3__17__stateIcEC2ERKS1_, symObjAddr: 0x170F8, symBinAddr: 0x1F80C, symSize: 0x180 }
  - { offsetInCU: 0x118C27, offset: 0x12BEFA, size: 0x8, addend: 0x0, symName: __ZNSt3__111basic_regexIcNS_12regex_traitsIcEEE11__push_charEc, symObjAddr: 0x17C64, symBinAddr: 0x20378, symSize: 0x144 }
  - { offsetInCU: 0x119005, offset: 0x12C2D8, size: 0x8, addend: 0x0, symName: __ZNSt3__111basic_regexIcNS_12regex_traitsIcEEE15__push_back_refEi, symObjAddr: 0x17DF4, symBinAddr: 0x20508, symSize: 0xCC }
  - { offsetInCU: 0x1191DD, offset: 0x12C4B0, size: 0x8, addend: 0x0, symName: __ZNSt3__111basic_regexIcNS_12regex_traitsIcEEE30__parse_character_class_escapeIPKcEET_S7_S7_, symObjAddr: 0x176BC, symBinAddr: 0x1FDD0, symSize: 0x1F8 }
  - { offsetInCU: 0x119666, offset: 0x12C939, size: 0x8, addend: 0x0, symName: __ZNSt3__111basic_regexIcNS_12regex_traitsIcEEE24__parse_character_escapeIPKcEET_S7_S7_PNS_12basic_stringIcNS_11char_traitsIcEENS_9allocatorIcEEEE, symObjAddr: 0x178B4, symBinAddr: 0x1FFC8, symSize: 0x3B0 }
  - { offsetInCU: 0x119AE2, offset: 0x12CDB5, size: 0x8, addend: 0x0, symName: __ZNSt3__111basic_regexIcNS_12regex_traitsIcEEE11__push_charEc, symObjAddr: 0x17C64, symBinAddr: 0x20378, symSize: 0x144 }
  - { offsetInCU: 0x119BD0, offset: 0x12CEA3, size: 0x8, addend: 0x0, symName: __ZNSt3__120__bracket_expressionIcNS_12regex_traitsIcEEEC2B8ue170006ERKS2_PNS_6__nodeIcEEbbb, symObjAddr: 0x18A9C, symBinAddr: 0x211B0, symSize: 0x1B0 }
  - { offsetInCU: 0x11A3A0, offset: 0x12D673, size: 0x8, addend: 0x0, symName: __ZNSt3__120__bracket_expressionIcNS_12regex_traitsIcEEE10__add_charB8ue170006Ec, symObjAddr: 0x18600, symBinAddr: 0x20D14, symSize: 0x49C }
  - { offsetInCU: 0x11ABB7, offset: 0x12DE8A, size: 0x8, addend: 0x0, symName: __ZNSt3__120__bracket_expressionIcNS_12regex_traitsIcEEEC2B8ue170006ERKS2_PNS_6__nodeIcEEbbb, symObjAddr: 0x18A9C, symBinAddr: 0x211B0, symSize: 0x1B0 }
  - { offsetInCU: 0x11ABC9, offset: 0x12DE9C, size: 0x8, addend: 0x0, symName: __ZNSt3__111basic_regexIcNS_12regex_traitsIcEEE23__parse_expression_termIPKcEET_S7_S7_PNS_20__bracket_expressionIcS2_EE, symObjAddr: 0x19E70, symBinAddr: 0x22584, symSize: 0x538 }
  - { offsetInCU: 0x11C097, offset: 0x12F36A, size: 0x8, addend: 0x0, symName: __ZNSt3__123__match_any_but_newlineIcED1Ev, symObjAddr: 0x175E8, symBinAddr: 0x1FCFC, symSize: 0x44 }
  - { offsetInCU: 0x11C121, offset: 0x12F3F4, size: 0x8, addend: 0x0, symName: __ZNSt3__123__match_any_but_newlineIcED0Ev, symObjAddr: 0x1762C, symBinAddr: 0x1FD40, symSize: 0x44 }
  - { offsetInCU: 0x11C59D, offset: 0x12F870, size: 0x8, addend: 0x0, symName: __ZNSt3__118__match_char_icaseIcNS_12regex_traitsIcEEED1Ev, symObjAddr: 0x17EC0, symBinAddr: 0x205D4, symSize: 0x58 }
  - { offsetInCU: 0x11C665, offset: 0x12F938, size: 0x8, addend: 0x0, symName: __ZNSt3__118__match_char_icaseIcNS_12regex_traitsIcEEED0Ev, symObjAddr: 0x17F18, symBinAddr: 0x2062C, symSize: 0x58 }
  - { offsetInCU: 0x11C73A, offset: 0x12FA0D, size: 0x8, addend: 0x0, symName: __ZNKSt3__118__match_char_icaseIcNS_12regex_traitsIcEEE6__execERNS_7__stateIcEE, symObjAddr: 0x17F70, symBinAddr: 0x20684, symSize: 0x84 }
  - { offsetInCU: 0x11C7FB, offset: 0x12FACE, size: 0x8, addend: 0x0, symName: __ZNSt3__120__match_char_collateIcNS_12regex_traitsIcEEED1Ev, symObjAddr: 0x17FF4, symBinAddr: 0x20708, symSize: 0x58 }
  - { offsetInCU: 0x11C8C3, offset: 0x12FB96, size: 0x8, addend: 0x0, symName: __ZNSt3__120__match_char_collateIcNS_12regex_traitsIcEEED0Ev, symObjAddr: 0x1804C, symBinAddr: 0x20760, symSize: 0x58 }
  - { offsetInCU: 0x11C998, offset: 0x12FC6B, size: 0x8, addend: 0x0, symName: __ZNKSt3__120__match_char_collateIcNS_12regex_traitsIcEEE6__execERNS_7__stateIcEE, symObjAddr: 0x180A4, symBinAddr: 0x207B8, symSize: 0x48 }
  - { offsetInCU: 0x11CA0A, offset: 0x12FCDD, size: 0x8, addend: 0x0, symName: __ZNSt3__112__match_charIcED1Ev, symObjAddr: 0x180EC, symBinAddr: 0x20800, symSize: 0x44 }
  - { offsetInCU: 0x11CA94, offset: 0x12FD67, size: 0x8, addend: 0x0, symName: __ZNSt3__112__match_charIcED0Ev, symObjAddr: 0x18130, symBinAddr: 0x20844, symSize: 0x44 }
  - { offsetInCU: 0x11CB2B, offset: 0x12FDFE, size: 0x8, addend: 0x0, symName: __ZNKSt3__112__match_charIcE6__execERNS_7__stateIcEE, symObjAddr: 0x18174, symBinAddr: 0x20888, symSize: 0x48 }
  - { offsetInCU: 0x11CB9D, offset: 0x12FE70, size: 0x8, addend: 0x0, symName: __ZNSt3__116__back_ref_icaseIcNS_12regex_traitsIcEEED1Ev, symObjAddr: 0x181BC, symBinAddr: 0x208D0, symSize: 0x58 }
  - { offsetInCU: 0x11CC65, offset: 0x12FF38, size: 0x8, addend: 0x0, symName: __ZNSt3__116__back_ref_icaseIcNS_12regex_traitsIcEEED0Ev, symObjAddr: 0x18214, symBinAddr: 0x20928, symSize: 0x58 }
  - { offsetInCU: 0x11CD3A, offset: 0x13000D, size: 0x8, addend: 0x0, symName: __ZNKSt3__116__back_ref_icaseIcNS_12regex_traitsIcEEE6__execERNS_7__stateIcEE, symObjAddr: 0x1826C, symBinAddr: 0x20980, symSize: 0xF8 }
  - { offsetInCU: 0x11CEB3, offset: 0x130186, size: 0x8, addend: 0x0, symName: __ZNSt3__118__back_ref_collateIcNS_12regex_traitsIcEEED1Ev, symObjAddr: 0x18364, symBinAddr: 0x20A78, symSize: 0x58 }
  - { offsetInCU: 0x11CF7B, offset: 0x13024E, size: 0x8, addend: 0x0, symName: __ZNSt3__118__back_ref_collateIcNS_12regex_traitsIcEEED0Ev, symObjAddr: 0x183BC, symBinAddr: 0x20AD0, symSize: 0x58 }
  - { offsetInCU: 0x11D050, offset: 0x130323, size: 0x8, addend: 0x0, symName: __ZNKSt3__118__back_ref_collateIcNS_12regex_traitsIcEEE6__execERNS_7__stateIcEE, symObjAddr: 0x18414, symBinAddr: 0x20B28, symSize: 0x98 }
  - { offsetInCU: 0x11D12E, offset: 0x130401, size: 0x8, addend: 0x0, symName: __ZNSt3__110__back_refIcED1Ev, symObjAddr: 0x184AC, symBinAddr: 0x20BC0, symSize: 0x44 }
  - { offsetInCU: 0x11D1B8, offset: 0x13048B, size: 0x8, addend: 0x0, symName: __ZNSt3__110__back_refIcED0Ev, symObjAddr: 0x184F0, symBinAddr: 0x20C04, symSize: 0x44 }
  - { offsetInCU: 0x11D254, offset: 0x130527, size: 0x8, addend: 0x0, symName: __ZNKSt3__110__back_refIcE6__execERNS_7__stateIcEE, symObjAddr: 0x18534, symBinAddr: 0x20C48, symSize: 0xCC }
  - { offsetInCU: 0x11D3CA, offset: 0x13069D, size: 0x8, addend: 0x0, symName: __ZNSt3__120__bracket_expressionIcNS_12regex_traitsIcEEE10__add_charB8ue170006Ec, symObjAddr: 0x18600, symBinAddr: 0x20D14, symSize: 0x49C }
  - { offsetInCU: 0x11D600, offset: 0x1308D3, size: 0x8, addend: 0x0, symName: __ZNSt3__16vectorINS_12basic_stringIcNS_11char_traitsIcEENS_9allocatorIcEEEENS4_IS6_EEED1B8ue170006Ev, symObjAddr: 0x18C4C, symBinAddr: 0x21360, symSize: 0x74 }
  - { offsetInCU: 0x11D8E0, offset: 0x130BB3, size: 0x8, addend: 0x0, symName: __ZNSt3__16vectorINS_4pairINS_12basic_stringIcNS_11char_traitsIcEENS_9allocatorIcEEEES7_EENS5_IS8_EEED1B8ue170006Ev, symObjAddr: 0x18CC0, symBinAddr: 0x213D4, symSize: 0x94 }
  - { offsetInCU: 0x11DEAD, offset: 0x131180, size: 0x8, addend: 0x0, symName: __ZNSt3__120__bracket_expressionIcNS_12regex_traitsIcEEED1Ev, symObjAddr: 0x18D54, symBinAddr: 0x21468, symSize: 0x4 }
  - { offsetInCU: 0x11DED0, offset: 0x1311A3, size: 0x8, addend: 0x0, symName: __ZNSt3__120__bracket_expressionIcNS_12regex_traitsIcEEED1Ev, symObjAddr: 0x18D54, symBinAddr: 0x21468, symSize: 0x4 }
  - { offsetInCU: 0x11DEE4, offset: 0x1311B7, size: 0x8, addend: 0x0, symName: __ZNSt3__120__bracket_expressionIcNS_12regex_traitsIcEEED2Ev, symObjAddr: 0x19800, symBinAddr: 0x21F14, symSize: 0x14C }
  - { offsetInCU: 0x11EA6C, offset: 0x131D3F, size: 0x8, addend: 0x0, symName: __ZNSt3__120__bracket_expressionIcNS_12regex_traitsIcEEED0Ev, symObjAddr: 0x18D58, symBinAddr: 0x2146C, symSize: 0x14 }
  - { offsetInCU: 0x11ED1D, offset: 0x131FF0, size: 0x8, addend: 0x0, symName: __ZNKSt3__120__bracket_expressionIcNS_12regex_traitsIcEEE6__execERNS_7__stateIcEE, symObjAddr: 0x18D6C, symBinAddr: 0x21480, symSize: 0xA3C }
  - { offsetInCU: 0x1207B5, offset: 0x133A88, size: 0x8, addend: 0x0, symName: __ZNKSt3__112regex_traitsIcE20__lookup_collatenameIPcEENS_12basic_stringIcNS_11char_traitsIcEENS_9allocatorIcEEEET_SA_c, symObjAddr: 0x19A68, symBinAddr: 0x2217C, symSize: 0x238 }
  - { offsetInCU: 0x12135F, offset: 0x134632, size: 0x8, addend: 0x0, symName: __ZNKSt3__112regex_traitsIcE9transformIPcEENS_12basic_stringIcNS_11char_traitsIcEENS_9allocatorIcEEEET_SA_, symObjAddr: 0x1994C, symBinAddr: 0x22060, symSize: 0x11C }
  - { offsetInCU: 0x12194B, offset: 0x134C1E, size: 0x8, addend: 0x0, symName: __ZNKSt3__112regex_traitsIcE19__transform_primaryIPcEENS_12basic_stringIcNS_11char_traitsIcEENS_9allocatorIcEEEET_SA_c, symObjAddr: 0x19CA0, symBinAddr: 0x223B4, symSize: 0x184 }
  - { offsetInCU: 0x12209F, offset: 0x135372, size: 0x8, addend: 0x0, symName: __ZNSt3__14pairINS_12basic_stringIcNS_11char_traitsIcEENS_9allocatorIcEEEES6_ED1Ev, symObjAddr: 0x197A8, symBinAddr: 0x21EBC, symSize: 0x58 }
  - { offsetInCU: 0x12253B, offset: 0x13580E, size: 0x8, addend: 0x0, symName: __ZNSt3__111basic_regexIcNS_12regex_traitsIcEEE25__parse_equivalence_classIPKcEET_S7_S7_PNS_20__bracket_expressionIcS2_EE, symObjAddr: 0x1A3A8, symBinAddr: 0x22ABC, symSize: 0x2A0 }
  - { offsetInCU: 0x123438, offset: 0x13670B, size: 0x8, addend: 0x0, symName: __ZNSt3__111basic_regexIcNS_12regex_traitsIcEEE18__parse_awk_escapeIPKcEET_S7_S7_PNS_12basic_stringIcNS_11char_traitsIcEENS_9allocatorIcEEEE, symObjAddr: 0x1A888, symBinAddr: 0x22F9C, symSize: 0x2EC }
  - { offsetInCU: 0x12354C, offset: 0x13681F, size: 0x8, addend: 0x0, symName: __ZNSt3__120__bracket_expressionIcNS_12regex_traitsIcEEE11__add_rangeB8ue170006ENS_12basic_stringIcNS_11char_traitsIcEENS_9allocatorIcEEEES9_, symObjAddr: 0x1AB74, symBinAddr: 0x23288, symSize: 0x450 }
  - { offsetInCU: 0x123561, offset: 0x136834, size: 0x8, addend: 0x0, symName: __ZNSt3__111basic_regexIcNS_12regex_traitsIcEEE24__parse_collating_symbolIPKcEET_S7_S7_RNS_12basic_stringIcNS_11char_traitsIcEENS_9allocatorIcEEEE, symObjAddr: 0x1A648, symBinAddr: 0x22D5C, symSize: 0xE4 }
  - { offsetInCU: 0x123965, offset: 0x136C38, size: 0x8, addend: 0x0, symName: __ZNSt3__111basic_regexIcNS_12regex_traitsIcEEE20__parse_class_escapeIPKcEET_S7_S7_RNS_12basic_stringIcNS_11char_traitsIcEENS_9allocatorIcEEEEPNS_20__bracket_expressionIcS2_EE, symObjAddr: 0x1A72C, symBinAddr: 0x22E40, symSize: 0x15C }
  - { offsetInCU: 0x123971, offset: 0x136C44, size: 0x8, addend: 0x0, symName: __ZNKSt3__112regex_traitsIcE18__lookup_classnameIPKcEEjT_S5_bc, symObjAddr: 0x1BB08, symBinAddr: 0x2421C, symSize: 0x138 }
  - { offsetInCU: 0x124020, offset: 0x1372F3, size: 0x8, addend: 0x0, symName: __ZNKSt3__112regex_traitsIcE20__lookup_collatenameIPKcEENS_12basic_stringIcNS_11char_traitsIcEENS_9allocatorIcEEEET_SB_c, symObjAddr: 0x1B400, symBinAddr: 0x23B14, symSize: 0x238 }
  - { offsetInCU: 0x124BCA, offset: 0x137E9D, size: 0x8, addend: 0x0, symName: __ZNSt3__120__bracket_expressionIcNS_12regex_traitsIcEEE13__add_digraphB8ue170006Ecc, symObjAddr: 0x1AFC4, symBinAddr: 0x236D8, symSize: 0x3F0 }
  - { offsetInCU: 0x1254A0, offset: 0x138773, size: 0x8, addend: 0x0, symName: __ZNSt3__119__throw_regex_errorB8ue170006ILNS_15regex_constants10error_typeE1EEEvv, symObjAddr: 0x1B3B4, symBinAddr: 0x23AC8, symSize: 0x4C }
  - { offsetInCU: 0x1254AC, offset: 0x13877F, size: 0x8, addend: 0x0, symName: __ZNSt3__111basic_regexIcNS_12regex_traitsIcEEE20__parse_class_escapeIPKcEET_S7_S7_RNS_12basic_stringIcNS_11char_traitsIcEENS_9allocatorIcEEEEPNS_20__bracket_expressionIcS2_EE, symObjAddr: 0x1A72C, symBinAddr: 0x22E40, symSize: 0x15C }
  - { offsetInCU: 0x125640, offset: 0x138913, size: 0x8, addend: 0x0, symName: __ZNSt3__111basic_regexIcNS_12regex_traitsIcEEE18__parse_awk_escapeIPKcEET_S7_S7_PNS_12basic_stringIcNS_11char_traitsIcEENS_9allocatorIcEEEE, symObjAddr: 0x1A888, symBinAddr: 0x22F9C, symSize: 0x2EC }
  - { offsetInCU: 0x125655, offset: 0x138928, size: 0x8, addend: 0x0, symName: __ZNSt3__120__bracket_expressionIcNS_12regex_traitsIcEEE11__add_rangeB8ue170006ENS_12basic_stringIcNS_11char_traitsIcEENS_9allocatorIcEEEES9_, symObjAddr: 0x1AB74, symBinAddr: 0x23288, symSize: 0x450 }
  - { offsetInCU: 0x126F86, offset: 0x13A259, size: 0x8, addend: 0x0, symName: __ZNKSt3__112regex_traitsIcE19__transform_primaryINS_11__wrap_iterIPcEEEENS_12basic_stringIcNS_11char_traitsIcEENS_9allocatorIcEEEET_SC_c, symObjAddr: 0x1B638, symBinAddr: 0x23D4C, symSize: 0x1E4 }
  - { offsetInCU: 0x1276FC, offset: 0x13A9CF, size: 0x8, addend: 0x0, symName: __ZNSt3__16vectorINS_12basic_stringIcNS_11char_traitsIcEENS_9allocatorIcEEEENS4_IS6_EEE21__push_back_slow_pathIRKS6_EEvOT_, symObjAddr: 0x1B81C, symBinAddr: 0x23F30, symSize: 0x228 }
  - { offsetInCU: 0x1281EA, offset: 0x13B4BD, size: 0x8, addend: 0x0, symName: __ZNSt3__120__bracket_expressionIcNS_12regex_traitsIcEEE14__add_neg_charB8ue170006Ec, symObjAddr: 0x1BC40, symBinAddr: 0x24354, symSize: 0x49C }
  - { offsetInCU: 0x128A01, offset: 0x13BCD4, size: 0x8, addend: 0x0, symName: __ZNKSt3__112regex_traitsIcE9transformINS_11__wrap_iterIPcEEEENS_12basic_stringIcNS_11char_traitsIcEENS_9allocatorIcEEEET_SC_, symObjAddr: 0x1C0DC, symBinAddr: 0x247F0, symSize: 0x180 }
  - { offsetInCU: 0x128C18, offset: 0x13BEEB, size: 0x8, addend: 0x0, symName: __ZNKSt3__112regex_traitsIcE9transformINS_11__wrap_iterIPcEEEENS_12basic_stringIcNS_11char_traitsIcEENS_9allocatorIcEEEET_SC_, symObjAddr: 0x1C0DC, symBinAddr: 0x247F0, symSize: 0x180 }
  - { offsetInCU: 0x129238, offset: 0x13C50B, size: 0x8, addend: 0x0, symName: __ZNSt3__16vectorINS_4pairINS_12basic_stringIcNS_11char_traitsIcEENS_9allocatorIcEEEES7_EENS5_IS8_EEE21__push_back_slow_pathIS8_EEvOT_, symObjAddr: 0x1C2A8, symBinAddr: 0x249BC, symSize: 0x1CC }
  - { offsetInCU: 0x129AFF, offset: 0x13CDD2, size: 0x8, addend: 0x0, symName: __ZNKSt3__16vectorINS_4pairINS_12basic_stringIcNS_11char_traitsIcEENS_9allocatorIcEEEES7_EENS5_IS8_EEE20__throw_length_errorB8ue170006Ev, symObjAddr: 0x1C474, symBinAddr: 0x24B88, symSize: 0x14 }
  - { offsetInCU: 0x129D43, offset: 0x13D016, size: 0x8, addend: 0x0, symName: __ZNKSt3__16vectorINS_4pairIccEENS_9allocatorIS2_EEE20__throw_length_errorB8ue170006Ev, symObjAddr: 0x1C488, symBinAddr: 0x24B9C, symSize: 0x14 }
  - { offsetInCU: 0x129D6C, offset: 0x13D03F, size: 0x8, addend: 0x0, symName: __ZNSt3__128__begin_marked_subexpressionIcED1Ev, symObjAddr: 0x1C49C, symBinAddr: 0x24BB0, symSize: 0x44 }
  - { offsetInCU: 0x12A32E, offset: 0x13D601, size: 0x8, addend: 0x0, symName: __ZNKSt3__16vectorINS_12basic_stringIcNS_11char_traitsIcEENS_9allocatorIcEEEENS4_IS6_EEE20__throw_length_errorB8ue170006Ev, symObjAddr: 0x1BAA8, symBinAddr: 0x241BC, symSize: 0x14 }
  - { offsetInCU: 0x12A357, offset: 0x13D62A, size: 0x8, addend: 0x0, symName: __ZNSt3__119__throw_regex_errorB8ue170006ILNS_15regex_constants10error_typeE2EEEvv, symObjAddr: 0x1BABC, symBinAddr: 0x241D0, symSize: 0x4C }
  - { offsetInCU: 0x12A363, offset: 0x13D636, size: 0x8, addend: 0x0, symName: __ZNSt3__114__split_bufferINS_12basic_stringIcNS_11char_traitsIcEENS_9allocatorIcEEEERNS4_IS6_EEED1Ev, symObjAddr: 0x1BA44, symBinAddr: 0x24158, symSize: 0x64 }
  - { offsetInCU: 0x12A841, offset: 0x13DB14, size: 0x8, addend: 0x0, symName: __ZNKSt3__16vectorINS_4pairINS_12basic_stringIcNS_11char_traitsIcEENS_9allocatorIcEEEES7_EENS5_IS8_EEE20__throw_length_errorB8ue170006Ev, symObjAddr: 0x1C474, symBinAddr: 0x24B88, symSize: 0x14 }
  - { offsetInCU: 0x12A86A, offset: 0x13DB3D, size: 0x8, addend: 0x0, symName: __ZNKSt3__16vectorINS_4pairIccEENS_9allocatorIS2_EEE20__throw_length_errorB8ue170006Ev, symObjAddr: 0x1C488, symBinAddr: 0x24B9C, symSize: 0x14 }
  - { offsetInCU: 0x12A893, offset: 0x13DB66, size: 0x8, addend: 0x0, symName: __ZNSt3__128__begin_marked_subexpressionIcED1Ev, symObjAddr: 0x1C49C, symBinAddr: 0x24BB0, symSize: 0x44 }
  - { offsetInCU: 0x12A91D, offset: 0x13DBF0, size: 0x8, addend: 0x0, symName: __ZNSt3__128__begin_marked_subexpressionIcED0Ev, symObjAddr: 0x1C4E0, symBinAddr: 0x24BF4, symSize: 0x44 }
  - { offsetInCU: 0x12A9B4, offset: 0x13DC87, size: 0x8, addend: 0x0, symName: __ZNKSt3__128__begin_marked_subexpressionIcE6__execERNS_7__stateIcEE, symObjAddr: 0x1C524, symBinAddr: 0x24C38, symSize: 0x30 }
  - { offsetInCU: 0x12AA47, offset: 0x13DD1A, size: 0x8, addend: 0x0, symName: __ZNSt3__126__end_marked_subexpressionIcED1Ev, symObjAddr: 0x1C554, symBinAddr: 0x24C68, symSize: 0x44 }
  - { offsetInCU: 0x12AAD1, offset: 0x13DDA4, size: 0x8, addend: 0x0, symName: __ZNSt3__126__end_marked_subexpressionIcED0Ev, symObjAddr: 0x1C598, symBinAddr: 0x24CAC, symSize: 0x44 }
  - { offsetInCU: 0x12AB68, offset: 0x13DE3B, size: 0x8, addend: 0x0, symName: __ZNKSt3__126__end_marked_subexpressionIcE6__execERNS_7__stateIcEE, symObjAddr: 0x1C5DC, symBinAddr: 0x24CF0, symSize: 0x38 }
  - { offsetInCU: 0x12AE73, offset: 0x13E146, size: 0x8, addend: 0x0, symName: __ZNSt3__16__loopIcED0Ev, symObjAddr: 0x1C84C, symBinAddr: 0x24F60, symSize: 0x68 }
  - { offsetInCU: 0x12AF6E, offset: 0x13E241, size: 0x8, addend: 0x0, symName: __ZNSt3__16__loopIcED1Ev, symObjAddr: 0x1C7E4, symBinAddr: 0x24EF8, symSize: 0x68 }
  - { offsetInCU: 0x12B058, offset: 0x13E32B, size: 0x8, addend: 0x0, symName: __ZNKSt3__16__loopIcE6__execERNS_7__stateIcEE, symObjAddr: 0x1C8B4, symBinAddr: 0x24FC8, symSize: 0x204 }
  - { offsetInCU: 0x12B1B6, offset: 0x13E489, size: 0x8, addend: 0x0, symName: __ZNKSt3__16__loopIcE12__exec_splitEbRNS_7__stateIcEE, symObjAddr: 0x1CAB8, symBinAddr: 0x251CC, symSize: 0xD8 }
  - { offsetInCU: 0x12B294, offset: 0x13E567, size: 0x8, addend: 0x0, symName: __ZNSt3__117__owns_two_statesIcED1Ev, symObjAddr: 0x1CB90, symBinAddr: 0x252A4, symSize: 0x68 }
  - { offsetInCU: 0x12B329, offset: 0x13E5FC, size: 0x8, addend: 0x0, symName: __ZNSt3__117__owns_two_statesIcED0Ev, symObjAddr: 0x1CBF8, symBinAddr: 0x2530C, symSize: 0x68 }
  - { offsetInCU: 0x12B3CB, offset: 0x13E69E, size: 0x8, addend: 0x0, symName: __ZNSt3__117__repeat_one_loopIcED1Ev, symObjAddr: 0x1CC60, symBinAddr: 0x25374, symSize: 0x4 }
  - { offsetInCU: 0x12B3F7, offset: 0x13E6CA, size: 0x8, addend: 0x0, symName: __ZNSt3__117__repeat_one_loopIcED0Ev, symObjAddr: 0x1CC64, symBinAddr: 0x25378, symSize: 0x4 }
  - { offsetInCU: 0x12B423, offset: 0x13E6F6, size: 0x8, addend: 0x0, symName: __ZNKSt3__117__repeat_one_loopIcE6__execERNS_7__stateIcEE, symObjAddr: 0x1CC68, symBinAddr: 0x2537C, symSize: 0x14 }
  - { offsetInCU: 0x12B495, offset: 0x13E768, size: 0x8, addend: 0x0, symName: __ZNSt3__111__alternateIcED1Ev, symObjAddr: 0x1CC7C, symBinAddr: 0x25390, symSize: 0x68 }
  - { offsetInCU: 0x12B54A, offset: 0x13E81D, size: 0x8, addend: 0x0, symName: __ZNSt3__111__alternateIcED0Ev, symObjAddr: 0x1CCE4, symBinAddr: 0x253F8, symSize: 0x68 }
  - { offsetInCU: 0x12B60C, offset: 0x13E8DF, size: 0x8, addend: 0x0, symName: __ZNKSt3__111__alternateIcE6__execERNS_7__stateIcEE, symObjAddr: 0x1CD4C, symBinAddr: 0x25460, symSize: 0xC }
  - { offsetInCU: 0x12B642, offset: 0x13E915, size: 0x8, addend: 0x0, symName: __ZNKSt3__111__alternateIcE12__exec_splitEbRNS_7__stateIcEE, symObjAddr: 0x1CD58, symBinAddr: 0x2546C, symSize: 0x24 }
  - { offsetInCU: 0x12B68C, offset: 0x13E95F, size: 0x8, addend: 0x0, symName: __ZNSt3__121__empty_non_own_stateIcED1Ev, symObjAddr: 0x1CD7C, symBinAddr: 0x25490, symSize: 0x4 }
  - { offsetInCU: 0x12B6B8, offset: 0x13E98B, size: 0x8, addend: 0x0, symName: __ZNSt3__121__empty_non_own_stateIcED0Ev, symObjAddr: 0x1CD80, symBinAddr: 0x25494, symSize: 0x4 }
  - { offsetInCU: 0x12B6E4, offset: 0x13E9B7, size: 0x8, addend: 0x0, symName: __ZNKSt3__121__empty_non_own_stateIcE6__execERNS_7__stateIcEE, symObjAddr: 0x1CD84, symBinAddr: 0x25498, symSize: 0x14 }
  - { offsetInCU: 0x12B83E, offset: 0x13EB11, size: 0x8, addend: 0x0, symName: __ZNSt3__111basic_regexIcNS_12regex_traitsIcEEE32__parse_one_char_or_coll_elem_REIPKcEET_S7_S7_, symObjAddr: 0x1D298, symBinAddr: 0x259AC, symSize: 0x140 }
  - { offsetInCU: 0x12BBC1, offset: 0x13EE94, size: 0x8, addend: 0x0, symName: __ZNSt3__111__match_anyIcED1Ev, symObjAddr: 0x1D3D8, symBinAddr: 0x25AEC, symSize: 0x44 }
  - { offsetInCU: 0x12BC4B, offset: 0x13EF1E, size: 0x8, addend: 0x0, symName: __ZNSt3__111__match_anyIcED0Ev, symObjAddr: 0x1D41C, symBinAddr: 0x25B30, symSize: 0x44 }
  - { offsetInCU: 0x12BCE2, offset: 0x13EFB5, size: 0x8, addend: 0x0, symName: __ZNKSt3__111__match_anyIcE6__execERNS_7__stateIcEE, symObjAddr: 0x1D460, symBinAddr: 0x25B74, symSize: 0x40 }
  - { offsetInCU: 0x12BD37, offset: 0x13F00A, size: 0x8, addend: 0x0, symName: __ZNSt3__111basic_regexIcNS_12regex_traitsIcEEE15__test_back_refEc, symObjAddr: 0x1D4A0, symBinAddr: 0x25BB4, symSize: 0x60 }
  - { offsetInCU: 0x12BE0D, offset: 0x13F0E0, size: 0x8, addend: 0x0, symName: __ZNSt3__111basic_regexIcNS_12regex_traitsIcEEE22__parse_ERE_expressionIPKcEET_S7_S7_, symObjAddr: 0x1D500, symBinAddr: 0x25C14, symSize: 0x284 }
  - { offsetInCU: 0x12BE5E, offset: 0x13F131, size: 0x8, addend: 0x0, symName: __ZNSt3__111basic_regexIcNS_12regex_traitsIcEEE20__parse_ORD_CHAR_EREIPKcEET_S7_S7_, symObjAddr: 0x1D784, symBinAddr: 0x25E98, symSize: 0x78 }
  - { offsetInCU: 0x12BEBE, offset: 0x13F191, size: 0x8, addend: 0x0, symName: __ZNSt3__111basic_regexIcNS_12regex_traitsIcEEE23__parse_QUOTED_CHAR_EREIPKcEET_S7_S7_, symObjAddr: 0x1D7FC, symBinAddr: 0x25F10, symSize: 0xC0 }
  - { offsetInCU: 0x12C058, offset: 0x13F32B, size: 0x8, addend: 0x0, symName: __ZNKSt3__111basic_regexIcNS_12regex_traitsIcEEE27__match_at_start_posix_subsINS_9allocatorINS_9sub_matchIPKcEEEEEEbS8_S8_RNS_13match_resultsIS8_T_EENS_15regex_constants15match_flag_typeEb, symObjAddr: 0x1E620, symBinAddr: 0x26D34, symSize: 0x5F4 }
  - { offsetInCU: 0x12DFE3, offset: 0x1412B6, size: 0x8, addend: 0x0, symName: __ZNKSt3__111basic_regexIcNS_12regex_traitsIcEEE29__match_at_start_posix_nosubsINS_9allocatorINS_9sub_matchIPKcEEEEEEbS8_S8_RNS_13match_resultsIS8_T_EENS_15regex_constants15match_flag_typeEb, symObjAddr: 0x1DCEC, symBinAddr: 0x26400, symSize: 0x934 }
  - { offsetInCU: 0x1302AE, offset: 0x143581, size: 0x8, addend: 0x0, symName: __ZNSt3__16vectorINS_9sub_matchINS_11__wrap_iterIPKcEEEENS_9allocatorIS6_EEE8__appendEm, symObjAddr: 0x20104, symBinAddr: 0x28818, symSize: 0x18C }
  - { offsetInCU: 0x1308B9, offset: 0x143B8C, size: 0x8, addend: 0x0, symName: __ZNKSt3__16vectorINS_9sub_matchINS_11__wrap_iterIPKcEEEENS_9allocatorIS6_EEE20__throw_length_errorB8ue170006Ev, symObjAddr: 0x20290, symBinAddr: 0x289A4, symSize: 0x14 }
  - { offsetInCU: 0x130D27, offset: 0x143FFA, size: 0x8, addend: 0x0, symName: __ZNSt3__15dequeINS_7__stateIcEENS_9allocatorIS2_EEE19__add_back_capacityEv, symObjAddr: 0x1EDDC, symBinAddr: 0x274F0, symSize: 0x5A8 }
  - { offsetInCU: 0x131F54, offset: 0x145227, size: 0x8, addend: 0x0, symName: __ZNSt3__15dequeINS_7__stateIcEENS_9allocatorIS2_EEE20__add_front_capacityEv, symObjAddr: 0x1F6B0, symBinAddr: 0x27DC4, symSize: 0x3BC }
  - { offsetInCU: 0x132E48, offset: 0x14611B, size: 0x8, addend: 0x0, symName: __ZNSt3__15dequeINS_7__stateIcEENS_9allocatorIS2_EEED1B8ue170006Ev, symObjAddr: 0x1ED68, symBinAddr: 0x2747C, symSize: 0x74 }
  - { offsetInCU: 0x13328A, offset: 0x14655D, size: 0x8, addend: 0x0, symName: __ZNSt3__16vectorINS_9sub_matchIPKcEENS_9allocatorIS4_EEE18__assign_with_sizeB8ue170006IPS4_S9_EEvT_T0_l, symObjAddr: 0x1FC08, symBinAddr: 0x2831C, symSize: 0x1EC }
  - { offsetInCU: 0x133BD9, offset: 0x146EAC, size: 0x8, addend: 0x0, symName: __ZNSt3__16vectorINS_4pairImPKcEENS_9allocatorIS4_EEE18__assign_with_sizeB8ue170006IPS4_S9_EEvT_T0_l, symObjAddr: 0x1FDF4, symBinAddr: 0x28508, symSize: 0x310 }
  - { offsetInCU: 0x133BFD, offset: 0x146ED0, size: 0x8, addend: 0x0, symName: __ZNSt3__16vectorINS_4pairImPKcEENS_9allocatorIS4_EEE18__assign_with_sizeB8ue170006IPS4_S9_EEvT_T0_l, symObjAddr: 0x1FDF4, symBinAddr: 0x28508, symSize: 0x310 }
  - { offsetInCU: 0x13449D, offset: 0x147770, size: 0x8, addend: 0x0, symName: __ZNSt3__16vectorINS_9sub_matchINS_11__wrap_iterIPKcEEEENS_9allocatorIS6_EEE8__appendEm, symObjAddr: 0x20104, symBinAddr: 0x28818, symSize: 0x18C }
  - { offsetInCU: 0x1344D7, offset: 0x1477AA, size: 0x8, addend: 0x0, symName: __ZNSt3__15dequeINS_7__stateIcEENS_9allocatorIS2_EEE5clearEv, symObjAddr: 0x1EC14, symBinAddr: 0x27328, symSize: 0x154 }
  - { offsetInCU: 0x134F8B, offset: 0x14825E, size: 0x8, addend: 0x0, symName: __ZNSt3__114__split_bufferIPNS_7__stateIcEENS_9allocatorIS3_EEE9push_backEOS3_, symObjAddr: 0x1F384, symBinAddr: 0x27A98, symSize: 0x190 }
  - { offsetInCU: 0x135494, offset: 0x148767, size: 0x8, addend: 0x0, symName: __ZNSt3__114__split_bufferIPNS_7__stateIcEENS_9allocatorIS3_EEE10push_frontEOS3_, symObjAddr: 0x1F514, symBinAddr: 0x27C28, symSize: 0x19C }
  - { offsetInCU: 0x1354A0, offset: 0x148773, size: 0x8, addend: 0x0, symName: __ZNSt3__114__split_bufferIPNS_7__stateIcEENS_9allocatorIS3_EEE10push_frontEOS3_, symObjAddr: 0x1F514, symBinAddr: 0x27C28, symSize: 0x19C }
  - { offsetInCU: 0x13597F, offset: 0x148C52, size: 0x8, addend: 0x0, symName: __ZNSt3__15dequeINS_7__stateIcEENS_9allocatorIS2_EEE20__add_front_capacityEv, symObjAddr: 0x1F6B0, symBinAddr: 0x27DC4, symSize: 0x3BC }
  - { offsetInCU: 0x135A4A, offset: 0x148D1D, size: 0x8, addend: 0x0, symName: __ZNSt3__114__split_bufferIPNS_7__stateIcEENS_9allocatorIS3_EEE10push_frontERKS3_, symObjAddr: 0x1FA6C, symBinAddr: 0x28180, symSize: 0x19C }
  - { offsetInCU: 0x135F29, offset: 0x1491FC, size: 0x8, addend: 0x0, symName: __ZNSt3__16vectorINS_9sub_matchIPKcEENS_9allocatorIS4_EEE18__assign_with_sizeB8ue170006IPS4_S9_EEvT_T0_l, symObjAddr: 0x1FC08, symBinAddr: 0x2831C, symSize: 0x1EC }
  - { offsetInCU: 0x13640C, offset: 0x1496DF, size: 0x8, addend: 0x0, symName: __ZNKSt3__16vectorINS_9sub_matchINS_11__wrap_iterIPKcEEEENS_9allocatorIS6_EEE20__throw_length_errorB8ue170006Ev, symObjAddr: 0x20290, symBinAddr: 0x289A4, symSize: 0x14 }
  - { offsetInCU: 0x136435, offset: 0x149708, size: 0x8, addend: 0x0, symName: __ZNKSt3__112basic_stringIcNS_11char_traitsIcEENS_9allocatorIcEEE20__throw_out_of_rangeB8ue170006Ev, symObjAddr: 0x202A4, symBinAddr: 0x289B8, symSize: 0x14 }
  - { offsetInCU: 0x136441, offset: 0x149714, size: 0x8, addend: 0x0, symName: __ZNKSt3__112basic_stringIcNS_11char_traitsIcEENS_9allocatorIcEEE20__throw_out_of_rangeB8ue170006Ev, symObjAddr: 0x202A4, symBinAddr: 0x289B8, symSize: 0x14 }
  - { offsetInCU: 0x13646A, offset: 0x14973D, size: 0x8, addend: 0x0, symName: __ZNSt3__120__throw_out_of_rangeB8ue170006EPKc, symObjAddr: 0x202B8, symBinAddr: 0x289CC, symSize: 0x50 }
  - { offsetInCU: 0x136476, offset: 0x149749, size: 0x8, addend: 0x0, symName: __ZNSt12out_of_rangeC1B8ue170006EPKc, symObjAddr: 0x20308, symBinAddr: 0x28A1C, symSize: 0x24 }
  - { offsetInCU: 0x13683A, offset: 0x149B0D, size: 0x8, addend: 0x0, symName: __ZN7httplib10ClientImplD2Ev, symObjAddr: 0x20C38, symBinAddr: 0x2934C, symSize: 0x2B8 }
  - { offsetInCU: 0x1383DD, offset: 0x14B6B0, size: 0x8, addend: 0x0, symName: __ZNK7httplib10ClientImpl18adjust_host_stringERKNSt3__112basic_stringIcNS1_11char_traitsIcEENS1_9allocatorIcEEEE, symObjAddr: 0x2116C, symBinAddr: 0x29880, symSize: 0x158 }
  - { offsetInCU: 0x138B17, offset: 0x14BDEA, size: 0x8, addend: 0x0, symName: __ZNSt3__16__treeINS_12__value_typeINS_12basic_stringIcNS_11char_traitsIcEENS_9allocatorIcEEEES7_EENS_19__map_value_compareIS7_S8_NS_4lessIS7_EELb1EEENS5_IS8_EEE7destroyEPNS_11__tree_nodeIS8_PvEE, symObjAddr: 0x214DC, symBinAddr: 0x29BF0, symSize: 0x78 }
  - { offsetInCU: 0x13909C, offset: 0x14C36F, size: 0x8, addend: 0x0, symName: __ZN7httplib9SSLClientD1Ev, symObjAddr: 0x20EF0, symBinAddr: 0x29604, symSize: 0x4 }
  - { offsetInCU: 0x1390BF, offset: 0x14C392, size: 0x8, addend: 0x0, symName: __ZN7httplib9SSLClientD1Ev, symObjAddr: 0x20EF0, symBinAddr: 0x29604, symSize: 0x4 }
  - { offsetInCU: 0x1390D3, offset: 0x14C3A6, size: 0x8, addend: 0x0, symName: __ZN7httplib9SSLClientD2Ev, symObjAddr: 0x23154, symBinAddr: 0x2B868, symSize: 0xEC }
  - { offsetInCU: 0x139542, offset: 0x14C815, size: 0x8, addend: 0x0, symName: __ZN7httplib9SSLClientD0Ev, symObjAddr: 0x20EF4, symBinAddr: 0x29608, symSize: 0x14 }
  - { offsetInCU: 0x1395A1, offset: 0x14C874, size: 0x8, addend: 0x0, symName: __ZNK7httplib9SSLClient8is_validEv, symObjAddr: 0x20F08, symBinAddr: 0x2961C, symSize: 0x10 }
  - { offsetInCU: 0x139606, offset: 0x14C8D9, size: 0x8, addend: 0x0, symName: __ZN7httplib9SSLClient25create_and_connect_socketERNS_10ClientImpl6SocketERNS_5ErrorE, symObjAddr: 0x20F18, symBinAddr: 0x2962C, symSize: 0x5C }
  - { offsetInCU: 0x1396B6, offset: 0x14C989, size: 0x8, addend: 0x0, symName: __ZNK7httplib10ClientImpl20create_client_socketERNS_5ErrorE, symObjAddr: 0x21554, symBinAddr: 0x29C68, symSize: 0x3DC }
  - { offsetInCU: 0x13A005, offset: 0x14D2D8, size: 0x8, addend: 0x0, symName: __ZN7httplib9SSLClient12shutdown_sslERNS_10ClientImpl6SocketEb, symObjAddr: 0x20F74, symBinAddr: 0x29688, symSize: 0x78 }
  - { offsetInCU: 0x13A3CE, offset: 0x14D6A1, size: 0x8, addend: 0x0, symName: __ZN7httplib9SSLClient14process_socketERKNS_10ClientImpl6SocketENSt3__18functionIFbRNS_6StreamEEEE, symObjAddr: 0x20FEC, symBinAddr: 0x29700, symSize: 0x178 }
  - { offsetInCU: 0x13A71B, offset: 0x14D9EE, size: 0x8, addend: 0x0, symName: __ZNK7httplib9SSLClient6is_sslEv, symObjAddr: 0x21164, symBinAddr: 0x29878, symSize: 0x8 }
  - { offsetInCU: 0x13A744, offset: 0x14DA17, size: 0x8, addend: 0x0, symName: __ZN7httplib10ClientImplD1Ev, symObjAddr: 0x212C4, symBinAddr: 0x299D8, symSize: 0x4 }
  - { offsetInCU: 0x13A767, offset: 0x14DA3A, size: 0x8, addend: 0x0, symName: __ZN7httplib10ClientImplD1Ev, symObjAddr: 0x212C4, symBinAddr: 0x299D8, symSize: 0x4 }
  - { offsetInCU: 0x13A797, offset: 0x14DA6A, size: 0x8, addend: 0x0, symName: __ZN7httplib10ClientImplD0Ev, symObjAddr: 0x212C8, symBinAddr: 0x299DC, symSize: 0x14 }
  - { offsetInCU: 0x13A7F6, offset: 0x14DAC9, size: 0x8, addend: 0x0, symName: __ZNK7httplib10ClientImpl8is_validEv, symObjAddr: 0x212DC, symBinAddr: 0x299F0, symSize: 0x8 }
  - { offsetInCU: 0x13A81F, offset: 0x14DAF2, size: 0x8, addend: 0x0, symName: __ZN7httplib10ClientImpl25create_and_connect_socketERNS0_6SocketERNS_5ErrorE, symObjAddr: 0x212E4, symBinAddr: 0x299F8, symSize: 0x38 }
  - { offsetInCU: 0x13A87C, offset: 0x14DB4F, size: 0x8, addend: 0x0, symName: __ZN7httplib10ClientImpl12shutdown_sslERNS0_6SocketEb, symObjAddr: 0x2131C, symBinAddr: 0x29A30, symSize: 0x4 }
  - { offsetInCU: 0x13AAA5, offset: 0x14DD78, size: 0x8, addend: 0x0, symName: __ZN7httplib10ClientImpl14process_socketERKNS0_6SocketENSt3__18functionIFbRNS_6StreamEEEE, symObjAddr: 0x21320, symBinAddr: 0x29A34, symSize: 0x1B4 }
  - { offsetInCU: 0x13B2DD, offset: 0x14E5B0, size: 0x8, addend: 0x0, symName: __ZNK7httplib10ClientImpl6is_sslEv, symObjAddr: 0x214D4, symBinAddr: 0x29BE8, symSize: 0x8 }
  - { offsetInCU: 0x13B765, offset: 0x14EA38, size: 0x8, addend: 0x0, symName: __ZZN7httplib6detail20create_client_socketERKNSt3__112basic_stringIcNS1_11char_traitsIcEENS1_9allocatorIcEEEES9_iibNS1_8functionIFviEEEllllllS9_RNS_5ErrorEENKUliR8addrinfoE_clEiSG_, symObjAddr: 0x21EA0, symBinAddr: 0x2A5B4, symSize: 0x34C }
  - { offsetInCU: 0x13C7D0, offset: 0x14FAA3, size: 0x8, addend: 0x0, symName: __ZN7httplib6detail12SocketStreamD1Ev, symObjAddr: 0x226A0, symBinAddr: 0x2ADB4, symSize: 0x40 }
  - { offsetInCU: 0x13C966, offset: 0x14FC39, size: 0x8, addend: 0x0, symName: __ZN7httplib6detail12SocketStreamD0Ev, symObjAddr: 0x226E0, symBinAddr: 0x2ADF4, symSize: 0x40 }
  - { offsetInCU: 0x13CB4E, offset: 0x14FE21, size: 0x8, addend: 0x0, symName: __ZNK7httplib6detail12SocketStream11is_readableEv, symObjAddr: 0x22720, symBinAddr: 0x2AE34, symSize: 0xE8 }
  - { offsetInCU: 0x13CC81, offset: 0x14FF54, size: 0x8, addend: 0x0, symName: __ZNK7httplib6detail12SocketStream11is_writableEv, symObjAddr: 0x22808, symBinAddr: 0x2AF1C, symSize: 0xF4 }
  - { offsetInCU: 0x13CDEE, offset: 0x1500C1, size: 0x8, addend: 0x0, symName: __ZN7httplib6detail12SocketStream4readEPcm, symObjAddr: 0x228FC, symBinAddr: 0x2B010, symSize: 0x160 }
  - { offsetInCU: 0x13CFFC, offset: 0x1502CF, size: 0x8, addend: 0x0, symName: __ZN7httplib6detail12SocketStream5writeEPKcm, symObjAddr: 0x22A5C, symBinAddr: 0x2B170, symSize: 0x88 }
  - { offsetInCU: 0x13D1DB, offset: 0x1504AE, size: 0x8, addend: 0x0, symName: __ZNK7httplib6detail12SocketStream22get_remote_ip_and_portERNSt3__112basic_stringIcNS2_11char_traitsIcEENS2_9allocatorIcEEEERi, symObjAddr: 0x22AE4, symBinAddr: 0x2B1F8, symSize: 0xE4 }
  - { offsetInCU: 0x13D367, offset: 0x15063A, size: 0x8, addend: 0x0, symName: __ZNK7httplib6detail12SocketStream21get_local_ip_and_portERNSt3__112basic_stringIcNS2_11char_traitsIcEENS2_9allocatorIcEEEERi, symObjAddr: 0x22BC8, symBinAddr: 0x2B2DC, symSize: 0xE0 }
  - { offsetInCU: 0x13D4BA, offset: 0x15078D, size: 0x8, addend: 0x0, symName: __ZNK7httplib6detail12SocketStream6socketEv, symObjAddr: 0x22CA8, symBinAddr: 0x2B3BC, symSize: 0x8 }
  - { offsetInCU: 0x13D4E3, offset: 0x1507B6, size: 0x8, addend: 0x0, symName: __ZNSt3__110__function6__funcIZN7httplib9SSLClientC1ERKNS_12basic_stringIcNS_11char_traitsIcEENS_9allocatorIcEEEEiSB_SB_EUlPKcSD_E_NS7_ISE_EEFvSD_SD_EED1Ev, symObjAddr: 0x22DDC, symBinAddr: 0x2B4F0, symSize: 0x4 }
  - { offsetInCU: 0x13D50F, offset: 0x1507E2, size: 0x8, addend: 0x0, symName: __ZNSt3__110__function6__funcIZN7httplib9SSLClientC1ERKNS_12basic_stringIcNS_11char_traitsIcEENS_9allocatorIcEEEEiSB_SB_EUlPKcSD_E_NS7_ISE_EEFvSD_SD_EED0Ev, symObjAddr: 0x22DE0, symBinAddr: 0x2B4F4, symSize: 0x4 }
  - { offsetInCU: 0x13D713, offset: 0x1509E6, size: 0x8, addend: 0x0, symName: __ZNKSt3__110__function6__funcIZN7httplib9SSLClientC1ERKNS_12basic_stringIcNS_11char_traitsIcEENS_9allocatorIcEEEEiSB_SB_EUlPKcSD_E_NS7_ISE_EEFvSD_SD_EE7__cloneEv, symObjAddr: 0x22DE4, symBinAddr: 0x2B4F8, symSize: 0x38 }
  - { offsetInCU: 0x13DA1E, offset: 0x150CF1, size: 0x8, addend: 0x0, symName: __ZNKSt3__110__function6__funcIZN7httplib9SSLClientC1ERKNS_12basic_stringIcNS_11char_traitsIcEENS_9allocatorIcEEEEiSB_SB_EUlPKcSD_E_NS7_ISE_EEFvSD_SD_EE7__cloneEPNS0_6__baseISG_EE, symObjAddr: 0x22E1C, symBinAddr: 0x2B530, symSize: 0x18 }
  - { offsetInCU: 0x13DA56, offset: 0x150D29, size: 0x8, addend: 0x0, symName: __ZNKSt3__110__function6__funcIZN7httplib9SSLClientC1ERKNS_12basic_stringIcNS_11char_traitsIcEENS_9allocatorIcEEEEiSB_SB_EUlPKcSD_E_NS7_ISE_EEFvSD_SD_EE7__cloneEPNS0_6__baseISG_EE, symObjAddr: 0x22E1C, symBinAddr: 0x2B530, symSize: 0x18 }
  - { offsetInCU: 0x13DA88, offset: 0x150D5B, size: 0x8, addend: 0x0, symName: __ZNKSt3__110__function6__funcIZN7httplib9SSLClientC1ERKNS_12basic_stringIcNS_11char_traitsIcEENS_9allocatorIcEEEEiSB_SB_EUlPKcSD_E_NS7_ISE_EEFvSD_SD_EE7__cloneEPNS0_6__baseISG_EE, symObjAddr: 0x22E1C, symBinAddr: 0x2B530, symSize: 0x18 }
  - { offsetInCU: 0x13DB28, offset: 0x150DFB, size: 0x8, addend: 0x0, symName: __ZNSt3__110__function6__funcIZN7httplib9SSLClientC1ERKNS_12basic_stringIcNS_11char_traitsIcEENS_9allocatorIcEEEEiSB_SB_EUlPKcSD_E_NS7_ISE_EEFvSD_SD_EE7destroyEv, symObjAddr: 0x22E34, symBinAddr: 0x2B548, symSize: 0x4 }
  - { offsetInCU: 0x13DB7B, offset: 0x150E4E, size: 0x8, addend: 0x0, symName: __ZNSt3__110__function6__funcIZN7httplib9SSLClientC1ERKNS_12basic_stringIcNS_11char_traitsIcEENS_9allocatorIcEEEEiSB_SB_EUlPKcSD_E_NS7_ISE_EEFvSD_SD_EE18destroy_deallocateEv, symObjAddr: 0x22E38, symBinAddr: 0x2B54C, symSize: 0x4 }
  - { offsetInCU: 0x13DBB0, offset: 0x150E83, size: 0x8, addend: 0x0, symName: __ZNSt3__110__function6__funcIZN7httplib9SSLClientC1ERKNS_12basic_stringIcNS_11char_traitsIcEENS_9allocatorIcEEEEiSB_SB_EUlPKcSD_E_NS7_ISE_EEFvSD_SD_EE18destroy_deallocateEv, symObjAddr: 0x22E38, symBinAddr: 0x2B54C, symSize: 0x4 }
  - { offsetInCU: 0x13DBD5, offset: 0x150EA8, size: 0x8, addend: 0x0, symName: __ZNSt3__110__function6__funcIZN7httplib9SSLClientC1ERKNS_12basic_stringIcNS_11char_traitsIcEENS_9allocatorIcEEEEiSB_SB_EUlPKcSD_E_NS7_ISE_EEFvSD_SD_EE18destroy_deallocateEv, symObjAddr: 0x22E38, symBinAddr: 0x2B54C, symSize: 0x4 }
  - { offsetInCU: 0x13DC04, offset: 0x150ED7, size: 0x8, addend: 0x0, symName: __ZNSt3__110__function6__funcIZN7httplib9SSLClientC1ERKNS_12basic_stringIcNS_11char_traitsIcEENS_9allocatorIcEEEEiSB_SB_EUlPKcSD_E_NS7_ISE_EEFvSD_SD_EE18destroy_deallocateEv, symObjAddr: 0x22E38, symBinAddr: 0x2B54C, symSize: 0x4 }
  - { offsetInCU: 0x13DC2D, offset: 0x150F00, size: 0x8, addend: 0x0, symName: __ZNSt3__110__function6__funcIZN7httplib9SSLClientC1ERKNS_12basic_stringIcNS_11char_traitsIcEENS_9allocatorIcEEEEiSB_SB_EUlPKcSD_E_NS7_ISE_EEFvSD_SD_EE18destroy_deallocateEv, symObjAddr: 0x22E38, symBinAddr: 0x2B54C, symSize: 0x4 }
  - { offsetInCU: 0x13DC85, offset: 0x150F58, size: 0x8, addend: 0x0, symName: __ZNSt3__110__function6__funcIZN7httplib9SSLClientC1ERKNS_12basic_stringIcNS_11char_traitsIcEENS_9allocatorIcEEEEiSB_SB_EUlPKcSD_E_NS7_ISE_EEFvSD_SD_EEclEOSD_SI_, symObjAddr: 0x22E3C, symBinAddr: 0x2B550, symSize: 0x8 }
  - { offsetInCU: 0x13DD18, offset: 0x150FEB, size: 0x8, addend: 0x0, symName: __ZNSt3__128__invoke_void_return_wrapperIvLb1EE6__callB8ue170006IJRZN7httplib9SSLClientC1ERKNS_12basic_stringIcNS_11char_traitsIcEENS_9allocatorIcEEEEiSC_SC_EUlPKcSE_E_SE_SE_EEEvDpOT_, symObjAddr: 0x22EC4, symBinAddr: 0x2B5D8, symSize: 0x124 }
  - { offsetInCU: 0x13E409, offset: 0x1516DC, size: 0x8, addend: 0x0, symName: __ZNKSt3__110__function6__funcIZN7httplib9SSLClientC1ERKNS_12basic_stringIcNS_11char_traitsIcEENS_9allocatorIcEEEEiSB_SB_EUlPKcSD_E_NS7_ISE_EEFvSD_SD_EE6targetERKSt9type_info, symObjAddr: 0x22E44, symBinAddr: 0x2B558, symSize: 0x74 }
  - { offsetInCU: 0x13E494, offset: 0x151767, size: 0x8, addend: 0x0, symName: __ZNKSt3__110__function6__funcIZN7httplib9SSLClientC1ERKNS_12basic_stringIcNS_11char_traitsIcEENS_9allocatorIcEEEEiSB_SB_EUlPKcSD_E_NS7_ISE_EEFvSD_SD_EE11target_typeEv, symObjAddr: 0x22EB8, symBinAddr: 0x2B5CC, symSize: 0xC }
  - { offsetInCU: 0x13E55C, offset: 0x15182F, size: 0x8, addend: 0x0, symName: __ZNSt3__16vectorINS_12basic_stringIcNS_11char_traitsIcEENS_9allocatorIcEEEENS4_IS6_EEE24__emplace_back_slow_pathIJS6_EEEvDpOT_, symObjAddr: 0x22FE8, symBinAddr: 0x2B6FC, symSize: 0x16C }
  - { offsetInCU: 0x13EBF9, offset: 0x151ECC, size: 0x8, addend: 0x0, symName: __ZN7httplib9SSLClientD2Ev, symObjAddr: 0x23154, symBinAddr: 0x2B868, symSize: 0xEC }
  - { offsetInCU: 0x13EC10, offset: 0x151EE3, size: 0x8, addend: 0x0, symName: __ZN7httplib6detail15SSLSocketStreamD1Ev, symObjAddr: 0x23240, symBinAddr: 0x2B954, symSize: 0x4 }
  - { offsetInCU: 0x13EC3B, offset: 0x151F0E, size: 0x8, addend: 0x0, symName: __ZN7httplib6detail15SSLSocketStreamD0Ev, symObjAddr: 0x23244, symBinAddr: 0x2B958, symSize: 0x4 }
  - { offsetInCU: 0x13EC66, offset: 0x151F39, size: 0x8, addend: 0x0, symName: __ZNK7httplib6detail15SSLSocketStream11is_readableEv, symObjAddr: 0x23248, symBinAddr: 0x2B95C, symSize: 0xE8 }
  - { offsetInCU: 0x13ED70, offset: 0x152043, size: 0x8, addend: 0x0, symName: __ZNK7httplib6detail15SSLSocketStream11is_writableEv, symObjAddr: 0x23330, symBinAddr: 0x2BA44, symSize: 0xF4 }
  - { offsetInCU: 0x13EE9E, offset: 0x152171, size: 0x8, addend: 0x0, symName: __ZN7httplib6detail15SSLSocketStream4readEPcm, symObjAddr: 0x23424, symBinAddr: 0x2BB38, symSize: 0x164 }
  - { offsetInCU: 0x13F094, offset: 0x152367, size: 0x8, addend: 0x0, symName: __ZN7httplib6detail15SSLSocketStream5writeEPKcm, symObjAddr: 0x23588, symBinAddr: 0x2BC9C, symSize: 0x120 }
  - { offsetInCU: 0x13F231, offset: 0x152504, size: 0x8, addend: 0x0, symName: __ZNK7httplib6detail15SSLSocketStream22get_remote_ip_and_portERNSt3__112basic_stringIcNS2_11char_traitsIcEENS2_9allocatorIcEEEERi, symObjAddr: 0x236A8, symBinAddr: 0x2BDBC, symSize: 0xE4 }
  - { offsetInCU: 0x13F36C, offset: 0x15263F, size: 0x8, addend: 0x0, symName: __ZNK7httplib6detail15SSLSocketStream21get_local_ip_and_portERNSt3__112basic_stringIcNS2_11char_traitsIcEENS2_9allocatorIcEEEERi, symObjAddr: 0x2378C, symBinAddr: 0x2BEA0, symSize: 0xE0 }
  - { offsetInCU: 0x13F49F, offset: 0x152772, size: 0x8, addend: 0x0, symName: __ZNK7httplib6detail15SSLSocketStream6socketEv, symObjAddr: 0x2386C, symBinAddr: 0x2BF80, symSize: 0x8 }
  - { offsetInCU: 0x13F4E4, offset: 0x1527B7, size: 0x8, addend: 0x0, symName: __ZNSt3__120__shared_ptr_pointerIPN7httplib6ClientENS_10shared_ptrIS2_E27__shared_ptr_default_deleteIS2_S2_EENS_9allocatorIS2_EEED1Ev, symObjAddr: 0x23874, symBinAddr: 0x2BF88, symSize: 0x4 }
  - { offsetInCU: 0x13F507, offset: 0x1527DA, size: 0x8, addend: 0x0, symName: __ZNSt3__120__shared_ptr_pointerIPN7httplib6ClientENS_10shared_ptrIS2_E27__shared_ptr_default_deleteIS2_S2_EENS_9allocatorIS2_EEED1Ev, symObjAddr: 0x23874, symBinAddr: 0x2BF88, symSize: 0x4 }
  - { offsetInCU: 0x13F53F, offset: 0x152812, size: 0x8, addend: 0x0, symName: __ZNSt3__120__shared_ptr_pointerIPN7httplib6ClientENS_10shared_ptrIS2_E27__shared_ptr_default_deleteIS2_S2_EENS_9allocatorIS2_EEED0Ev, symObjAddr: 0x23878, symBinAddr: 0x2BF8C, symSize: 0x14 }
  - { offsetInCU: 0x13F5A6, offset: 0x152879, size: 0x8, addend: 0x0, symName: __ZNSt3__120__shared_ptr_pointerIPN7httplib6ClientENS_10shared_ptrIS2_E27__shared_ptr_default_deleteIS2_S2_EENS_9allocatorIS2_EEE16__on_zero_sharedEv, symObjAddr: 0x2388C, symBinAddr: 0x2BFA0, symSize: 0x48 }
  - { offsetInCU: 0x13F6CE, offset: 0x1529A1, size: 0x8, addend: 0x0, symName: __ZNKSt3__120__shared_ptr_pointerIPN7httplib6ClientENS_10shared_ptrIS2_E27__shared_ptr_default_deleteIS2_S2_EENS_9allocatorIS2_EEE13__get_deleterERKSt9type_info, symObjAddr: 0x238D4, symBinAddr: 0x2BFE8, symSize: 0x74 }
  - { offsetInCU: 0x13F7AB, offset: 0x152A7E, size: 0x8, addend: 0x0, symName: __ZNSt3__120__shared_ptr_pointerIPN7httplib6ClientENS_10shared_ptrIS2_E27__shared_ptr_default_deleteIS2_S2_EENS_9allocatorIS2_EEE21__on_zero_shared_weakEv, symObjAddr: 0x23948, symBinAddr: 0x2C05C, symSize: 0x4 }
  - { offsetInCU: 0x13F7E0, offset: 0x152AB3, size: 0x8, addend: 0x0, symName: __ZNSt3__120__shared_ptr_pointerIPN7httplib6ClientENS_10shared_ptrIS2_E27__shared_ptr_default_deleteIS2_S2_EENS_9allocatorIS2_EEE21__on_zero_shared_weakEv, symObjAddr: 0x23948, symBinAddr: 0x2C05C, symSize: 0x4 }
  - { offsetInCU: 0x13F805, offset: 0x152AD8, size: 0x8, addend: 0x0, symName: __ZNSt3__120__shared_ptr_pointerIPN7httplib6ClientENS_10shared_ptrIS2_E27__shared_ptr_default_deleteIS2_S2_EENS_9allocatorIS2_EEE21__on_zero_shared_weakEv, symObjAddr: 0x23948, symBinAddr: 0x2C05C, symSize: 0x4 }
  - { offsetInCU: 0x13F834, offset: 0x152B07, size: 0x8, addend: 0x0, symName: __ZNSt3__120__shared_ptr_pointerIPN7httplib6ClientENS_10shared_ptrIS2_E27__shared_ptr_default_deleteIS2_S2_EENS_9allocatorIS2_EEE21__on_zero_shared_weakEv, symObjAddr: 0x23948, symBinAddr: 0x2C05C, symSize: 0x4 }
  - { offsetInCU: 0x13F85D, offset: 0x152B30, size: 0x8, addend: 0x0, symName: __ZNSt3__120__shared_ptr_pointerIPN7httplib6ClientENS_10shared_ptrIS2_E27__shared_ptr_default_deleteIS2_S2_EENS_9allocatorIS2_EEE21__on_zero_shared_weakEv, symObjAddr: 0x23948, symBinAddr: 0x2C05C, symSize: 0x4 }
  - { offsetInCU: 0x13F907, offset: 0x152BDA, size: 0x8, addend: 0x0, symName: __ZNSt3__16__treeINS_12__value_typeINS_12basic_stringIcNS_11char_traitsIcEENS_9allocatorIcEEEEN8nlohmann16json_abi_v3_11_210basic_jsonINS_3mapENS_6vectorES7_bxydS5_NS9_14adl_serializerENSC_IhNS5_IhEEEEEEEENS_19__map_value_compareIS7_SH_NS_4lessIvEELb1EEENS5_ISH_EEE25__emplace_unique_key_argsIS7_JS7_DnEEENS_4pairINS_15__tree_iteratorISH_PNS_11__tree_nodeISH_PvEElEEbEERKT_DpOT0_, symObjAddr: 0x23AF0, symBinAddr: 0x2C204, symSize: 0x178 }
  - { offsetInCU: 0x140155, offset: 0x153428, size: 0x8, addend: 0x0, symName: __ZN7aiutils10SystemInfo13logSystemInfoEv, symObjAddr: 0x23FB4, symBinAddr: 0x2C6C8, symSize: 0x878 }
  - { offsetInCU: 0x1425FC, offset: 0x1558CF, size: 0x8, addend: 0x0, symName: __ZNSt3__16vectorIN7aiutils10DeviceInfoENS_9allocatorIS2_EEED1B8ue170006Ev, symObjAddr: 0x2482C, symBinAddr: 0x2CF40, symSize: 0x94 }
  - { offsetInCU: 0x142CAD, offset: 0x155F80, size: 0x8, addend: 0x0, symName: __ZN7aiutils10SystemInfo10getGPUListEb, symObjAddr: 0x248D8, symBinAddr: 0x2CFEC, symSize: 0xE0 }
  - { offsetInCU: 0x143156, offset: 0x156429, size: 0x8, addend: 0x0, symName: __ZNSt3__16vectorIN7aiutils10DeviceInfoENS_9allocatorIS2_EEE16__init_with_sizeB8ue170006IPS2_S7_EEvT_T0_m, symObjAddr: 0x24B8C, symBinAddr: 0x2D2A0, symSize: 0xF4 }
  - { offsetInCU: 0x1435B3, offset: 0x156886, size: 0x8, addend: 0x0, symName: __ZNK7aiutils10SystemInfo7isAppleEv, symObjAddr: 0x249B8, symBinAddr: 0x2D0CC, symSize: 0x1D4 }
  - { offsetInCU: 0x144241, offset: 0x157514, size: 0x8, addend: 0x0, symName: __ZN7aiutils10SystemInfoD1Ev, symObjAddr: 0x248C0, symBinAddr: 0x2CFD4, symSize: 0x4 }
  - { offsetInCU: 0x144264, offset: 0x157537, size: 0x8, addend: 0x0, symName: __ZN7aiutils10SystemInfoD1Ev, symObjAddr: 0x248C0, symBinAddr: 0x2CFD4, symSize: 0x4 }
  - { offsetInCU: 0x144278, offset: 0x15754B, size: 0x8, addend: 0x0, symName: __ZN7aiutils10SystemInfoD2Ev, symObjAddr: 0x24E00, symBinAddr: 0x2D514, symSize: 0xE8 }
  - { offsetInCU: 0x1448E3, offset: 0x157BB6, size: 0x8, addend: 0x0, symName: __ZN7aiutils10SystemInfoD0Ev, symObjAddr: 0x248C4, symBinAddr: 0x2CFD8, symSize: 0x14 }
  - { offsetInCU: 0x144CB5, offset: 0x157F88, size: 0x8, addend: 0x0, symName: __ZN7aiutils10DeviceInfoC2ERKS0_, symObjAddr: 0x24D58, symBinAddr: 0x2D46C, symSize: 0xA8 }
  - { offsetInCU: 0x144EA5, offset: 0x158178, size: 0x8, addend: 0x0, symName: __ZNKSt3__16vectorIN7aiutils10DeviceInfoENS_9allocatorIS2_EEE20__throw_length_errorB8ue170006Ev, symObjAddr: 0x24D44, symBinAddr: 0x2D458, symSize: 0x14 }
  - { offsetInCU: 0x144ECE, offset: 0x1581A1, size: 0x8, addend: 0x0, symName: __ZN7aiutils10DeviceInfoC2ERKS0_, symObjAddr: 0x24D58, symBinAddr: 0x2D46C, symSize: 0xA8 }
  - { offsetInCU: 0x144EDA, offset: 0x1581AD, size: 0x8, addend: 0x0, symName: __ZNSt3__16vectorIN7aiutils10DeviceInfoENS_9allocatorIS2_EEE16__init_with_sizeB8ue170006IPS2_S7_EEvT_T0_m.cold.1, symObjAddr: 0x3B918, symBinAddr: 0x6C49C, symSize: 0x58 }
  - { offsetInCU: 0x1450FB, offset: 0x1583CE, size: 0x8, addend: 0x0, symName: __ZNSt3__128__exception_guard_exceptionsINS_6vectorIN7aiutils10DeviceInfoENS_9allocatorIS3_EEE16__destroy_vectorEED1B8ue170006Ev, symObjAddr: 0x24C80, symBinAddr: 0x2D394, symSize: 0xC4 }
  - { offsetInCU: 0x14552E, offset: 0x158801, size: 0x8, addend: 0x0, symName: __ZN7aiutils10DeviceInfoC2ERKS0_.cold.1, symObjAddr: 0x3B970, symBinAddr: 0x6C4F4, symSize: 0x14 }
  - { offsetInCU: 0x145549, offset: 0x15881C, size: 0x8, addend: 0x0, symName: __ZN7aiutils10DeviceInfoC2ERKS0_.cold.1, symObjAddr: 0x3B970, symBinAddr: 0x6C4F4, symSize: 0x14 }
  - { offsetInCU: 0x14555E, offset: 0x158831, size: 0x8, addend: 0x0, symName: __ZN7aiutils10DeviceInfoC2ERKS0_.cold.1, symObjAddr: 0x3B970, symBinAddr: 0x6C4F4, symSize: 0x14 }
  - { offsetInCU: 0x145574, offset: 0x158847, size: 0x8, addend: 0x0, symName: __ZN7aiutils10DeviceInfoC2ERKS0_.cold.1, symObjAddr: 0x3B970, symBinAddr: 0x6C4F4, symSize: 0x14 }
  - { offsetInCU: 0x145821, offset: 0x158AF4, size: 0x8, addend: 0x0, symName: __ZN7httplib10ClientImpl3GetERKNSt3__112basic_stringIcNS1_11char_traitsIcEENS1_9allocatorIcEEEERKNS1_8multimapIS7_S7_NS_6detail2ciENS5_INS1_4pairIS8_S7_EEEEEENS1_8functionIFbPKcmEEE.cold.1, symObjAddr: 0x3B984, symBinAddr: 0x6C508, symSize: 0x7C }
  - { offsetInCU: 0x145DFC, offset: 0x1590CF, size: 0x8, addend: 0x0, symName: __ZNSt3__16__treeINS_12__value_typeINS_12basic_stringIcNS_11char_traitsIcEENS_9allocatorIcEEEES7_EENS_19__map_value_compareIS7_S8_N7httplib6detail2ciELb1EEENS5_IS8_EEE14__assign_multiINS_21__tree_const_iteratorIS8_PNS_11__tree_nodeIS8_PvEElEEEEvT_SN_, symObjAddr: 0x257C8, symBinAddr: 0x2DEDC, symSize: 0x2A4 }
  - { offsetInCU: 0x1462EE, offset: 0x1595C1, size: 0x8, addend: 0x0, symName: __ZNSt3__18functionIFbPKcmyyEEaSIZN7httplib10ClientImpl3GetERKNS_12basic_stringIcNS_11char_traitsIcEENS_9allocatorIcEEEERKNS_8multimapISD_SD_NS6_6detail2ciENSB_INS_4pairISE_SD_EEEEEENS0_IFbRKNS6_8ResponseEEEENS0_IFbS2_mEEENS0_IFbyyEEEEUlS2_myyE_vEERS4_OT_, symObjAddr: 0x253E4, symBinAddr: 0x2DAF8, symSize: 0x1B4 }
  - { offsetInCU: 0x146983, offset: 0x159C56, size: 0x8, addend: 0x0, symName: __ZN7httplib10ClientImpl5send_EONS_7RequestE, symObjAddr: 0x25598, symBinAddr: 0x2DCAC, symSize: 0x170 }
  - { offsetInCU: 0x147054, offset: 0x15A327, size: 0x8, addend: 0x0, symName: __ZN7httplib7RequestD2Ev, symObjAddr: 0x3AD34, symBinAddr: 0x43448, symSize: 0x1E0 }
  - { offsetInCU: 0x148463, offset: 0x15B736, size: 0x8, addend: 0x0, symName: __ZNSt3__110__function12__value_funcIFbPKcmyyEE4swapB8ue170006ERS5_, symObjAddr: 0x261EC, symBinAddr: 0x2E900, symSize: 0x198 }
  - { offsetInCU: 0x1489F7, offset: 0x15BCCA, size: 0x8, addend: 0x0, symName: __ZNSt3__110unique_ptrIN7httplib8ResponseENS_14default_deleteIS2_EEED1B8ue170006Ev, symObjAddr: 0x26424, symBinAddr: 0x2EB38, symSize: 0x34 }
  - { offsetInCU: 0x148BBA, offset: 0x15BE8D, size: 0x8, addend: 0x0, symName: __ZNSt3__16__treeINS_12__value_typeINS_12basic_stringIcNS_11char_traitsIcEENS_9allocatorIcEEEEN7httplib17MultipartFormDataEEENS_19__map_value_compareIS7_SA_NS_4lessIS7_EELb1EEENS5_ISA_EEE7destroyEPNS_11__tree_nodeISA_PvEE, symObjAddr: 0x25708, symBinAddr: 0x2DE1C, symSize: 0xC0 }
  - { offsetInCU: 0x149559, offset: 0x15C82C, size: 0x8, addend: 0x0, symName: __ZNSt3__16__treeINS_12__value_typeINS_12basic_stringIcNS_11char_traitsIcEENS_9allocatorIcEEEES7_EENS_19__map_value_compareIS7_S8_N7httplib6detail2ciELb1EEENS5_IS8_EEE16__find_leaf_highERPNS_15__tree_end_nodeIPNS_16__tree_node_baseIPvEEEERKS7_, symObjAddr: 0x25AC0, symBinAddr: 0x2E1D4, symSize: 0x110 }
  - { offsetInCU: 0x149813, offset: 0x15CAE6, size: 0x8, addend: 0x0, symName: __ZNSt3__16__treeINS_12__value_typeINS_12basic_stringIcNS_11char_traitsIcEENS_9allocatorIcEEEES7_EENS_19__map_value_compareIS7_S8_N7httplib6detail2ciELb1EEENS5_IS8_EEE15__emplace_multiIJRKNS_4pairIKS7_S7_EEEEENS_15__tree_iteratorIS8_PNS_11__tree_nodeIS8_PvEElEEDpOT_, symObjAddr: 0x25C48, symBinAddr: 0x2E35C, symSize: 0xC8 }
  - { offsetInCU: 0x149B6A, offset: 0x15CE3D, size: 0x8, addend: 0x0, symName: __ZNSt3__16__treeINS_12__value_typeINS_12basic_stringIcNS_11char_traitsIcEENS_9allocatorIcEEEES7_EENS_19__map_value_compareIS7_S8_N7httplib6detail2ciELb1EEENS5_IS8_EEE18_DetachedTreeCacheD1B8ue170006Ev, symObjAddr: 0x25A6C, symBinAddr: 0x2E180, symSize: 0x54 }
  - { offsetInCU: 0x149F66, offset: 0x15D239, size: 0x8, addend: 0x0, symName: __ZNSt3__14pairIKNS_12basic_stringIcNS_11char_traitsIcEENS_9allocatorIcEEEES6_EC2B8ue170006ERKS8_, symObjAddr: 0x25D78, symBinAddr: 0x2E48C, symSize: 0x158 }
  - { offsetInCU: 0x14A845, offset: 0x15DB18, size: 0x8, addend: 0x0, symName: __ZNSt3__110unique_ptrINS_11__tree_nodeINS_12__value_typeINS_12basic_stringIcNS_11char_traitsIcEENS_9allocatorIcEEEES8_EEPvEENS_22__tree_node_destructorINS6_ISB_EEEEED1B8ue170006Ev, symObjAddr: 0x25D10, symBinAddr: 0x2E424, symSize: 0x68 }
  - { offsetInCU: 0x14AD54, offset: 0x15E027, size: 0x8, addend: 0x0, symName: __ZNSt3__110__function6__funcIZN7httplib10ClientImpl3GetERKNS_12basic_stringIcNS_11char_traitsIcEENS_9allocatorIcEEEERKNS_8multimapIS9_S9_NS2_6detail2ciENS7_INS_4pairISA_S9_EEEEEENS_8functionIFbRKNS2_8ResponseEEEENSL_IFbPKcmEEENSL_IFbyyEEEEUlSS_myyE_NS7_ISX_EEFbSS_myyEED1Ev, symObjAddr: 0x25ED0, symBinAddr: 0x2E5E4, symSize: 0x60 }
  - { offsetInCU: 0x14AF25, offset: 0x15E1F8, size: 0x8, addend: 0x0, symName: __ZNSt3__110__function6__funcIZN7httplib10ClientImpl3GetERKNS_12basic_stringIcNS_11char_traitsIcEENS_9allocatorIcEEEERKNS_8multimapIS9_S9_NS2_6detail2ciENS7_INS_4pairISA_S9_EEEEEENS_8functionIFbRKNS2_8ResponseEEEENSL_IFbPKcmEEENSL_IFbyyEEEEUlSS_myyE_NS7_ISX_EEFbSS_myyEED0Ev, symObjAddr: 0x25F30, symBinAddr: 0x2E644, symSize: 0x60 }
  - { offsetInCU: 0x14B406, offset: 0x15E6D9, size: 0x8, addend: 0x0, symName: __ZNKSt3__110__function6__funcIZN7httplib10ClientImpl3GetERKNS_12basic_stringIcNS_11char_traitsIcEENS_9allocatorIcEEEERKNS_8multimapIS9_S9_NS2_6detail2ciENS7_INS_4pairISA_S9_EEEEEENS_8functionIFbRKNS2_8ResponseEEEENSL_IFbPKcmEEENSL_IFbyyEEEEUlSS_myyE_NS7_ISX_EEFbSS_myyEE7__cloneEv, symObjAddr: 0x25F90, symBinAddr: 0x2E6A4, symSize: 0x8C }
  - { offsetInCU: 0x14B907, offset: 0x15EBDA, size: 0x8, addend: 0x0, symName: __ZNKSt3__110__function6__funcIZN7httplib10ClientImpl3GetERKNS_12basic_stringIcNS_11char_traitsIcEENS_9allocatorIcEEEERKNS_8multimapIS9_S9_NS2_6detail2ciENS7_INS_4pairISA_S9_EEEEEENS_8functionIFbRKNS2_8ResponseEEEENSL_IFbPKcmEEENSL_IFbyyEEEEUlSS_myyE_NS7_ISX_EEFbSS_myyEE7__cloneEPNS0_6__baseISZ_EE, symObjAddr: 0x2601C, symBinAddr: 0x2E730, symSize: 0x80 }
  - { offsetInCU: 0x14BB6C, offset: 0x15EE3F, size: 0x8, addend: 0x0, symName: __ZNSt3__110__function6__funcIZN7httplib10ClientImpl3GetERKNS_12basic_stringIcNS_11char_traitsIcEENS_9allocatorIcEEEERKNS_8multimapIS9_S9_NS2_6detail2ciENS7_INS_4pairISA_S9_EEEEEENS_8functionIFbRKNS2_8ResponseEEEENSL_IFbPKcmEEENSL_IFbyyEEEEUlSS_myyE_NS7_ISX_EEFbSS_myyEE7destroyEv, symObjAddr: 0x2609C, symBinAddr: 0x2E7B0, symSize: 0x3C }
  - { offsetInCU: 0x14BCF3, offset: 0x15EFC6, size: 0x8, addend: 0x0, symName: __ZNSt3__110__function6__funcIZN7httplib10ClientImpl3GetERKNS_12basic_stringIcNS_11char_traitsIcEENS_9allocatorIcEEEERKNS_8multimapIS9_S9_NS2_6detail2ciENS7_INS_4pairISA_S9_EEEEEENS_8functionIFbRKNS2_8ResponseEEEENSL_IFbPKcmEEENSL_IFbyyEEEEUlSS_myyE_NS7_ISX_EEFbSS_myyEE18destroy_deallocateEv, symObjAddr: 0x260D8, symBinAddr: 0x2E7EC, symSize: 0x50 }
  - { offsetInCU: 0x14C085, offset: 0x15F358, size: 0x8, addend: 0x0, symName: __ZNSt3__110__function6__funcIZN7httplib10ClientImpl3GetERKNS_12basic_stringIcNS_11char_traitsIcEENS_9allocatorIcEEEERKNS_8multimapIS9_S9_NS2_6detail2ciENS7_INS_4pairISA_S9_EEEEEENS_8functionIFbRKNS2_8ResponseEEEENSL_IFbPKcmEEENSL_IFbyyEEEEUlSS_myyE_NS7_ISX_EEFbSS_myyEEclEOSS_OmOyS13_, symObjAddr: 0x26128, symBinAddr: 0x2E83C, symSize: 0x44 }
  - { offsetInCU: 0x14C216, offset: 0x15F4E9, size: 0x8, addend: 0x0, symName: __ZNKSt3__110__function6__funcIZN7httplib10ClientImpl3GetERKNS_12basic_stringIcNS_11char_traitsIcEENS_9allocatorIcEEEERKNS_8multimapIS9_S9_NS2_6detail2ciENS7_INS_4pairISA_S9_EEEEEENS_8functionIFbRKNS2_8ResponseEEEENSL_IFbPKcmEEENSL_IFbyyEEEEUlSS_myyE_NS7_ISX_EEFbSS_myyEE6targetERKSt9type_info, symObjAddr: 0x2616C, symBinAddr: 0x2E880, symSize: 0x74 }
  - { offsetInCU: 0x14C222, offset: 0x15F4F5, size: 0x8, addend: 0x0, symName: __ZNKSt3__110__function6__funcIZN7httplib10ClientImpl3GetERKNS_12basic_stringIcNS_11char_traitsIcEENS_9allocatorIcEEEERKNS_8multimapIS9_S9_NS2_6detail2ciENS7_INS_4pairISA_S9_EEEEEENS_8functionIFbRKNS2_8ResponseEEEENSL_IFbPKcmEEENSL_IFbyyEEEEUlSS_myyE_NS7_ISX_EEFbSS_myyEE6targetERKSt9type_info, symObjAddr: 0x2616C, symBinAddr: 0x2E880, symSize: 0x74 }
  - { offsetInCU: 0x14C2AD, offset: 0x15F580, size: 0x8, addend: 0x0, symName: __ZNKSt3__110__function6__funcIZN7httplib10ClientImpl3GetERKNS_12basic_stringIcNS_11char_traitsIcEENS_9allocatorIcEEEERKNS_8multimapIS9_S9_NS2_6detail2ciENS7_INS_4pairISA_S9_EEEEEENS_8functionIFbRKNS2_8ResponseEEEENSL_IFbPKcmEEENSL_IFbyyEEEEUlSS_myyE_NS7_ISX_EEFbSS_myyEE11target_typeEv, symObjAddr: 0x261E0, symBinAddr: 0x2E8F4, symSize: 0xC }
  - { offsetInCU: 0x14C2DB, offset: 0x15F5AE, size: 0x8, addend: 0x0, symName: __ZN7httplib10ClientImpl4sendERNS_7RequestERNS_8ResponseERNS_5ErrorE, symObjAddr: 0x26384, symBinAddr: 0x2EA98, symSize: 0xA0 }
  - { offsetInCU: 0x14CF13, offset: 0x1601E6, size: 0x8, addend: 0x0, symName: __ZNSt3__16__treeINS_12__value_typeINS_12basic_stringIcNS_11char_traitsIcEENS_9allocatorIcEEEES7_EENS_19__map_value_compareIS7_S8_N7httplib6detail2ciELb1EEENS5_IS8_EEE4findIS7_EENS_15__tree_iteratorIS8_PNS_11__tree_nodeIS8_PvEElEERKT_, symObjAddr: 0x3531C, symBinAddr: 0x3DA30, symSize: 0x1A0 }
  - { offsetInCU: 0x14D406, offset: 0x1606D9, size: 0x8, addend: 0x0, symName: __ZN7httplib6detail10scope_exitINSt3__18functionIFvvEEEED1Ev, symObjAddr: 0x26D10, symBinAddr: 0x2F424, symSize: 0x74 }
  - { offsetInCU: 0x14DE35, offset: 0x161108, size: 0x8, addend: 0x0, symName: __ZZN7httplib9SSLClient18connect_with_proxyERNS_10ClientImpl6SocketERNS_8ResponseERbRNS_5ErrorEENKUlRNS_6StreamEE_clESA_, symObjAddr: 0x27B48, symBinAddr: 0x3025C, symSize: 0x160 }
  - { offsetInCU: 0x14E6D7, offset: 0x1619AA, size: 0x8, addend: 0x0, symName: __ZZN7httplib9SSLClient18connect_with_proxyERNS_10ClientImpl6SocketERNS_8ResponseERbRNS_5ErrorEENKUlRNS_6StreamEE0_clESA_, symObjAddr: 0x30C54, symBinAddr: 0x39368, symSize: 0x3E0 }
  - { offsetInCU: 0x14F4B7, offset: 0x16278A, size: 0x8, addend: 0x0, symName: __ZN7httplib8ResponseaSERKS0_, symObjAddr: 0x27878, symBinAddr: 0x2FF8C, symSize: 0x1D0 }
  - { offsetInCU: 0x14FEFC, offset: 0x1631CF, size: 0x8, addend: 0x0, symName: __ZNKSt3__16__treeINS_12__value_typeINS_12basic_stringIcNS_11char_traitsIcEENS_9allocatorIcEEEES7_EENS_19__map_value_compareIS7_S8_N7httplib6detail2ciELb1EEENS5_IS8_EEE4findIS7_EENS_21__tree_const_iteratorIS8_PNS_11__tree_nodeIS8_PvEElEERKT_, symObjAddr: 0x2A7F8, symBinAddr: 0x32F0C, symSize: 0x1A0 }
  - { offsetInCU: 0x150408, offset: 0x1636DB, size: 0x8, addend: 0x0, symName: __ZNKSt3__16__treeINS_12__value_typeINS_12basic_stringIcNS_11char_traitsIcEENS_9allocatorIcEEEES7_EENS_19__map_value_compareIS7_S8_N7httplib6detail2ciELb1EEENS5_IS8_EEE19__equal_range_multiIS7_EENS_4pairINS_21__tree_const_iteratorIS8_PNS_11__tree_nodeIS8_PvEElEESN_EERKT_, symObjAddr: 0x2FB74, symBinAddr: 0x38288, symSize: 0x320 }
  - { offsetInCU: 0x150DCF, offset: 0x1640A2, size: 0x8, addend: 0x0, symName: __ZNSt3__114regex_iteratorINS_11__wrap_iterIPKcEEcNS_12regex_traitsIcEEEC2ES4_S4_RKNS_11basic_regexIcS6_EENS_15regex_constants15match_flag_typeE, symObjAddr: 0x3085C, symBinAddr: 0x38F70, symSize: 0x110 }
  - { offsetInCU: 0x1515A0, offset: 0x164873, size: 0x8, addend: 0x0, symName: __ZNSt3__114regex_iteratorINS_11__wrap_iterIPKcEEcNS_12regex_traitsIcEEEppEv, symObjAddr: 0x30698, symBinAddr: 0x38DAC, symSize: 0x1C4 }
  - { offsetInCU: 0x151E46, offset: 0x165119, size: 0x8, addend: 0x0, symName: __ZNSt3__16__treeINS_12__value_typeINS_12basic_stringIcNS_11char_traitsIcEENS_9allocatorIcEEEES7_EENS_19__map_value_compareIS7_S8_NS_4lessIS7_EELb1EEENS5_IS8_EEE25__emplace_unique_key_argsIS7_JRKNS_21piecewise_construct_tENS_5tupleIJRKS7_EEENSJ_IJEEEEEENS_4pairINS_15__tree_iteratorIS8_PNS_11__tree_nodeIS8_PvEElEEbEERKT_DpOT0_, symObjAddr: 0x3096C, symBinAddr: 0x39080, symSize: 0x1E8 }
  - { offsetInCU: 0x152B57, offset: 0x165E2A, size: 0x8, addend: 0x0, symName: __ZNSt3__110__function12__value_funcIFbmmRN7httplib8DataSinkEEE4swapB8ue170006ERS6_, symObjAddr: 0x33F00, symBinAddr: 0x3C614, symSize: 0x198 }
  - { offsetInCU: 0x152C91, offset: 0x165F64, size: 0x8, addend: 0x0, symName: __ZNSt3__110__function12__value_funcIFvbEE4swapB8ue170006ERS3_, symObjAddr: 0x34098, symBinAddr: 0x3C7AC, symSize: 0x198 }
  - { offsetInCU: 0x152DCB, offset: 0x16609E, size: 0x8, addend: 0x0, symName: __ZNSt3__110__function6__funcIZN7httplib9SSLClient18connect_with_proxyERNS2_10ClientImpl6SocketERNS2_8ResponseERbRNS2_5ErrorEEUlRNS2_6StreamEE_NS_9allocatorISE_EEFbSD_EED1Ev, symObjAddr: 0x27A48, symBinAddr: 0x3015C, symSize: 0x4 }
  - { offsetInCU: 0x152DF7, offset: 0x1660CA, size: 0x8, addend: 0x0, symName: __ZNSt3__110__function6__funcIZN7httplib9SSLClient18connect_with_proxyERNS2_10ClientImpl6SocketERNS2_8ResponseERbRNS2_5ErrorEEUlRNS2_6StreamEE_NS_9allocatorISE_EEFbSD_EED0Ev, symObjAddr: 0x27A4C, symBinAddr: 0x30160, symSize: 0x4 }
  - { offsetInCU: 0x152FD5, offset: 0x1662A8, size: 0x8, addend: 0x0, symName: __ZNKSt3__110__function6__funcIZN7httplib9SSLClient18connect_with_proxyERNS2_10ClientImpl6SocketERNS2_8ResponseERbRNS2_5ErrorEEUlRNS2_6StreamEE_NS_9allocatorISE_EEFbSD_EE7__cloneEv, symObjAddr: 0x27A50, symBinAddr: 0x30164, symSize: 0x44 }
  - { offsetInCU: 0x153312, offset: 0x1665E5, size: 0x8, addend: 0x0, symName: __ZNKSt3__110__function6__funcIZN7httplib9SSLClient18connect_with_proxyERNS2_10ClientImpl6SocketERNS2_8ResponseERbRNS2_5ErrorEEUlRNS2_6StreamEE_NS_9allocatorISE_EEFbSD_EE7__cloneEPNS0_6__baseISH_EE, symObjAddr: 0x27A94, symBinAddr: 0x301A8, symSize: 0x24 }
  - { offsetInCU: 0x15334A, offset: 0x16661D, size: 0x8, addend: 0x0, symName: __ZNKSt3__110__function6__funcIZN7httplib9SSLClient18connect_with_proxyERNS2_10ClientImpl6SocketERNS2_8ResponseERbRNS2_5ErrorEEUlRNS2_6StreamEE_NS_9allocatorISE_EEFbSD_EE7__cloneEPNS0_6__baseISH_EE, symObjAddr: 0x27A94, symBinAddr: 0x301A8, symSize: 0x24 }
  - { offsetInCU: 0x15337C, offset: 0x16664F, size: 0x8, addend: 0x0, symName: __ZNKSt3__110__function6__funcIZN7httplib9SSLClient18connect_with_proxyERNS2_10ClientImpl6SocketERNS2_8ResponseERbRNS2_5ErrorEEUlRNS2_6StreamEE_NS_9allocatorISE_EEFbSD_EE7__cloneEPNS0_6__baseISH_EE, symObjAddr: 0x27A94, symBinAddr: 0x301A8, symSize: 0x24 }
  - { offsetInCU: 0x1534A9, offset: 0x16677C, size: 0x8, addend: 0x0, symName: __ZNSt3__110__function6__funcIZN7httplib9SSLClient18connect_with_proxyERNS2_10ClientImpl6SocketERNS2_8ResponseERbRNS2_5ErrorEEUlRNS2_6StreamEE_NS_9allocatorISE_EEFbSD_EE7destroyEv, symObjAddr: 0x27AB8, symBinAddr: 0x301CC, symSize: 0x4 }
  - { offsetInCU: 0x1534FC, offset: 0x1667CF, size: 0x8, addend: 0x0, symName: __ZNSt3__110__function6__funcIZN7httplib9SSLClient18connect_with_proxyERNS2_10ClientImpl6SocketERNS2_8ResponseERbRNS2_5ErrorEEUlRNS2_6StreamEE_NS_9allocatorISE_EEFbSD_EE18destroy_deallocateEv, symObjAddr: 0x27ABC, symBinAddr: 0x301D0, symSize: 0x4 }
  - { offsetInCU: 0x153531, offset: 0x166804, size: 0x8, addend: 0x0, symName: __ZNSt3__110__function6__funcIZN7httplib9SSLClient18connect_with_proxyERNS2_10ClientImpl6SocketERNS2_8ResponseERbRNS2_5ErrorEEUlRNS2_6StreamEE_NS_9allocatorISE_EEFbSD_EE18destroy_deallocateEv, symObjAddr: 0x27ABC, symBinAddr: 0x301D0, symSize: 0x4 }
  - { offsetInCU: 0x153556, offset: 0x166829, size: 0x8, addend: 0x0, symName: __ZNSt3__110__function6__funcIZN7httplib9SSLClient18connect_with_proxyERNS2_10ClientImpl6SocketERNS2_8ResponseERbRNS2_5ErrorEEUlRNS2_6StreamEE_NS_9allocatorISE_EEFbSD_EE18destroy_deallocateEv, symObjAddr: 0x27ABC, symBinAddr: 0x301D0, symSize: 0x4 }
  - { offsetInCU: 0x153585, offset: 0x166858, size: 0x8, addend: 0x0, symName: __ZNSt3__110__function6__funcIZN7httplib9SSLClient18connect_with_proxyERNS2_10ClientImpl6SocketERNS2_8ResponseERbRNS2_5ErrorEEUlRNS2_6StreamEE_NS_9allocatorISE_EEFbSD_EE18destroy_deallocateEv, symObjAddr: 0x27ABC, symBinAddr: 0x301D0, symSize: 0x4 }
  - { offsetInCU: 0x1535AE, offset: 0x166881, size: 0x8, addend: 0x0, symName: __ZNSt3__110__function6__funcIZN7httplib9SSLClient18connect_with_proxyERNS2_10ClientImpl6SocketERNS2_8ResponseERbRNS2_5ErrorEEUlRNS2_6StreamEE_NS_9allocatorISE_EEFbSD_EE18destroy_deallocateEv, symObjAddr: 0x27ABC, symBinAddr: 0x301D0, symSize: 0x4 }
  - { offsetInCU: 0x1535DA, offset: 0x1668AD, size: 0x8, addend: 0x0, symName: __ZNSt3__110__function6__funcIZN7httplib9SSLClient18connect_with_proxyERNS2_10ClientImpl6SocketERNS2_8ResponseERbRNS2_5ErrorEEUlRNS2_6StreamEE_NS_9allocatorISE_EEFbSD_EEclESD_, symObjAddr: 0x27AC0, symBinAddr: 0x301D4, symSize: 0x8 }
  - { offsetInCU: 0x15368F, offset: 0x166962, size: 0x8, addend: 0x0, symName: __ZNKSt3__110__function6__funcIZN7httplib9SSLClient18connect_with_proxyERNS2_10ClientImpl6SocketERNS2_8ResponseERbRNS2_5ErrorEEUlRNS2_6StreamEE_NS_9allocatorISE_EEFbSD_EE6targetERKSt9type_info, symObjAddr: 0x27AC8, symBinAddr: 0x301DC, symSize: 0x74 }
  - { offsetInCU: 0x15371A, offset: 0x1669ED, size: 0x8, addend: 0x0, symName: __ZNKSt3__110__function6__funcIZN7httplib9SSLClient18connect_with_proxyERNS2_10ClientImpl6SocketERNS2_8ResponseERbRNS2_5ErrorEEUlRNS2_6StreamEE_NS_9allocatorISE_EEFbSD_EE11target_typeEv, symObjAddr: 0x27B3C, symBinAddr: 0x30250, symSize: 0xC }
  - { offsetInCU: 0x15420E, offset: 0x1674E1, size: 0x8, addend: 0x0, symName: __ZN7httplib10ClientImpl13write_requestERNS_6StreamERNS_7RequestEbRNS_5ErrorE, symObjAddr: 0x283D4, symBinAddr: 0x30AE8, symSize: 0xD2C }
  - { offsetInCU: 0x15A52A, offset: 0x16D7FD, size: 0x8, addend: 0x0, symName: __ZNSt3__18functionIFbPKcmyyEEC1EOS4_, symObjAddr: 0x29FA4, symBinAddr: 0x326B8, symSize: 0x64 }
  - { offsetInCU: 0x15AC2C, offset: 0x16DEFF, size: 0x8, addend: 0x0, symName: __ZNSt3__16__treeINS_12__value_typeINS_12basic_stringIcNS_11char_traitsIcEENS_9allocatorIcEEEES7_EENS_19__map_value_compareIS7_S8_N7httplib6detail2ciELb1EEENS5_IS8_EEE15__emplace_multiIJRA5_KcRKS7_EEENS_15__tree_iteratorIS8_PNS_11__tree_nodeIS8_PvEElEEDpOT_, symObjAddr: 0x2ABA8, symBinAddr: 0x332BC, symSize: 0xD8 }
  - { offsetInCU: 0x15AFBE, offset: 0x16E291, size: 0x8, addend: 0x0, symName: __ZNSt3__16__treeINS_12__value_typeINS_12basic_stringIcNS_11char_traitsIcEENS_9allocatorIcEEEES7_EENS_19__map_value_compareIS7_S8_N7httplib6detail2ciELb1EEENS5_IS8_EEE15__emplace_multiIJRA7_KcRA4_SH_EEENS_15__tree_iteratorIS8_PNS_11__tree_nodeIS8_PvEElEEDpOT_, symObjAddr: 0x2ADC4, symBinAddr: 0x334D8, symSize: 0xD8 }
  - { offsetInCU: 0x15B350, offset: 0x16E623, size: 0x8, addend: 0x0, symName: __ZNSt3__16__treeINS_12__value_typeINS_12basic_stringIcNS_11char_traitsIcEENS_9allocatorIcEEEES7_EENS_19__map_value_compareIS7_S8_N7httplib6detail2ciELb1EEENS5_IS8_EEE15__emplace_multiIJRA11_KcRS7_EEENS_15__tree_iteratorIS8_PNS_11__tree_nodeIS8_PvEElEEDpOT_, symObjAddr: 0x2AFD4, symBinAddr: 0x336E8, symSize: 0xD8 }
  - { offsetInCU: 0x15B6E2, offset: 0x16E9B5, size: 0x8, addend: 0x0, symName: __ZNSt3__16__treeINS_12__value_typeINS_12basic_stringIcNS_11char_traitsIcEENS_9allocatorIcEEEES7_EENS_19__map_value_compareIS7_S8_N7httplib6detail2ciELb1EEENS5_IS8_EEE15__emplace_multiIJRA13_KcRA11_SH_EEENS_15__tree_iteratorIS8_PNS_11__tree_nodeIS8_PvEElEEDpOT_, symObjAddr: 0x2B61C, symBinAddr: 0x33D30, symSize: 0xD8 }
  - { offsetInCU: 0x15BA74, offset: 0x16ED47, size: 0x8, addend: 0x0, symName: __ZNSt3__16__treeINS_12__value_typeINS_12basic_stringIcNS_11char_traitsIcEENS_9allocatorIcEEEES7_EENS_19__map_value_compareIS7_S8_N7httplib6detail2ciELb1EEENS5_IS8_EEE15__emplace_multiIJRA15_KcRS7_EEENS_15__tree_iteratorIS8_PNS_11__tree_nodeIS8_PvEElEEDpOT_, symObjAddr: 0x2B1F0, symBinAddr: 0x33904, symSize: 0xD8 }
  - { offsetInCU: 0x15BE06, offset: 0x16F0D9, size: 0x8, addend: 0x0, symName: __ZNSt3__16__treeINS_12__value_typeINS_12basic_stringIcNS_11char_traitsIcEENS_9allocatorIcEEEES7_EENS_19__map_value_compareIS7_S8_N7httplib6detail2ciELb1EEENS5_IS8_EEE15__emplace_multiIJRA11_KcRA6_SH_EEENS_15__tree_iteratorIS8_PNS_11__tree_nodeIS8_PvEElEEDpOT_, symObjAddr: 0x2A998, symBinAddr: 0x330AC, symSize: 0xD8 }
  - { offsetInCU: 0x15C198, offset: 0x16F46B, size: 0x8, addend: 0x0, symName: __ZNSt3__16__treeINS_12__value_typeINS_12basic_stringIcNS_11char_traitsIcEENS_9allocatorIcEEEES7_EENS_19__map_value_compareIS7_S8_N7httplib6detail2ciELb1EEENS5_IS8_EEE15__emplace_multiIJRA15_KcRA2_SH_EEENS_15__tree_iteratorIS8_PNS_11__tree_nodeIS8_PvEElEEDpOT_, symObjAddr: 0x2B40C, symBinAddr: 0x33B20, symSize: 0xD8 }
  - { offsetInCU: 0x15C52A, offset: 0x16F7FD, size: 0x8, addend: 0x0, symName: __ZNSt3__16__treeINS_12__value_typeINS_12basic_stringIcNS_11char_traitsIcEENS_9allocatorIcEEEES7_EENS_19__map_value_compareIS7_S8_N7httplib6detail2ciELb1EEENS5_IS8_EEE14__insert_multiB8ue170006INS_4pairIS7_S7_EEEENS_15__tree_iteratorIS8_PNS_11__tree_nodeIS8_PvEElEEOT_, symObjAddr: 0x2B82C, symBinAddr: 0x33F40, symSize: 0x118 }
  - { offsetInCU: 0x15CBD8, offset: 0x16FEAB, size: 0x8, addend: 0x0, symName: __ZN7httplib6Stream12write_formatIJPKcS3_EEElS3_DpRKT_, symObjAddr: 0x2A450, symBinAddr: 0x32B64, symSize: 0x358 }
  - { offsetInCU: 0x15D7C5, offset: 0x170A98, size: 0x8, addend: 0x0, symName: __ZN7httplib6detail18stream_line_reader7getlineEv, symObjAddr: 0x2DBD8, symBinAddr: 0x362EC, symSize: 0x148 }
  - { offsetInCU: 0x15DCE1, offset: 0x170FB4, size: 0x8, addend: 0x0, symName: __ZN7httplib6detail12BufferStreamD1Ev, symObjAddr: 0x2A7A8, symBinAddr: 0x32EBC, symSize: 0x50 }
  - { offsetInCU: 0x15DFFC, offset: 0x1712CF, size: 0x8, addend: 0x0, symName: __ZNSt3__14pairIKNS_12basic_stringIcNS_11char_traitsIcEENS_9allocatorIcEEEES6_EC2B8ue170006IRA11_KcRA6_SA_LPv0EEEOT_OT0_, symObjAddr: 0x2AA70, symBinAddr: 0x33184, symSize: 0x138 }
  - { offsetInCU: 0x15EA10, offset: 0x171CE3, size: 0x8, addend: 0x0, symName: __ZNSt3__14pairIKNS_12basic_stringIcNS_11char_traitsIcEENS_9allocatorIcEEEES6_EC2B8ue170006IRA5_KcRS7_LPv0EEEOT_OT0_, symObjAddr: 0x2AC80, symBinAddr: 0x33394, symSize: 0x144 }
  - { offsetInCU: 0x15F439, offset: 0x17270C, size: 0x8, addend: 0x0, symName: __ZNSt3__14pairIKNS_12basic_stringIcNS_11char_traitsIcEENS_9allocatorIcEEEES6_EC2B8ue170006IRA7_KcRA4_SA_LPv0EEEOT_OT0_, symObjAddr: 0x2AE9C, symBinAddr: 0x335B0, symSize: 0x138 }
  - { offsetInCU: 0x15FE4D, offset: 0x173120, size: 0x8, addend: 0x0, symName: __ZNSt3__14pairIKNS_12basic_stringIcNS_11char_traitsIcEENS_9allocatorIcEEEES6_EC2B8ue170006IRA11_KcRS6_LPv0EEEOT_OT0_, symObjAddr: 0x2B0AC, symBinAddr: 0x337C0, symSize: 0x144 }
  - { offsetInCU: 0x160876, offset: 0x173B49, size: 0x8, addend: 0x0, symName: __ZNSt3__14pairIKNS_12basic_stringIcNS_11char_traitsIcEENS_9allocatorIcEEEES6_EC2B8ue170006IRA15_KcRS6_LPv0EEEOT_OT0_, symObjAddr: 0x2B2C8, symBinAddr: 0x339DC, symSize: 0x144 }
  - { offsetInCU: 0x16129F, offset: 0x174572, size: 0x8, addend: 0x0, symName: __ZNSt3__14pairIKNS_12basic_stringIcNS_11char_traitsIcEENS_9allocatorIcEEEES6_EC2B8ue170006IRA15_KcRA2_SA_LPv0EEEOT_OT0_, symObjAddr: 0x2B4E4, symBinAddr: 0x33BF8, symSize: 0x138 }
  - { offsetInCU: 0x161CB3, offset: 0x174F86, size: 0x8, addend: 0x0, symName: __ZNSt3__14pairIKNS_12basic_stringIcNS_11char_traitsIcEENS_9allocatorIcEEEES6_EC2B8ue170006IRA13_KcRA11_SA_LPv0EEEOT_OT0_, symObjAddr: 0x2B6F4, symBinAddr: 0x33E08, symSize: 0x138 }
  - { offsetInCU: 0x162736, offset: 0x175A09, size: 0x8, addend: 0x0, symName: __ZN7httplib6detail12BufferStreamD0Ev, symObjAddr: 0x2BAAC, symBinAddr: 0x341C0, symSize: 0x50 }
  - { offsetInCU: 0x1628BC, offset: 0x175B8F, size: 0x8, addend: 0x0, symName: __ZNK7httplib6detail12BufferStream11is_readableEv, symObjAddr: 0x2BAFC, symBinAddr: 0x34210, symSize: 0x8 }
  - { offsetInCU: 0x1628E5, offset: 0x175BB8, size: 0x8, addend: 0x0, symName: __ZNK7httplib6detail12BufferStream11is_writableEv, symObjAddr: 0x2BB04, symBinAddr: 0x34218, symSize: 0x8 }
  - { offsetInCU: 0x16290E, offset: 0x175BE1, size: 0x8, addend: 0x0, symName: __ZN7httplib6detail12BufferStream4readEPcm, symObjAddr: 0x2BB0C, symBinAddr: 0x34220, symSize: 0x34 }
  - { offsetInCU: 0x162968, offset: 0x175C3B, size: 0x8, addend: 0x0, symName: __ZN7httplib6detail12BufferStream5writeEPKcm, symObjAddr: 0x2BB40, symBinAddr: 0x34254, symSize: 0x28 }
  - { offsetInCU: 0x1629B1, offset: 0x175C84, size: 0x8, addend: 0x0, symName: __ZNK7httplib6detail12BufferStream22get_remote_ip_and_portERNSt3__112basic_stringIcNS2_11char_traitsIcEENS2_9allocatorIcEEEERi, symObjAddr: 0x2BB68, symBinAddr: 0x3427C, symSize: 0x4 }
  - { offsetInCU: 0x1629EE, offset: 0x175CC1, size: 0x8, addend: 0x0, symName: __ZNK7httplib6detail12BufferStream21get_local_ip_and_portERNSt3__112basic_stringIcNS2_11char_traitsIcEENS2_9allocatorIcEEEERi, symObjAddr: 0x2BB6C, symBinAddr: 0x34280, symSize: 0x4 }
  - { offsetInCU: 0x162A2B, offset: 0x175CFE, size: 0x8, addend: 0x0, symName: __ZNK7httplib6detail12BufferStream6socketEv, symObjAddr: 0x2BB70, symBinAddr: 0x34284, symSize: 0x8 }
  - { offsetInCU: 0x16343E, offset: 0x176711, size: 0x8, addend: 0x0, symName: __ZN7httplib8DataSinkC2Ev, symObjAddr: 0x2C1C4, symBinAddr: 0x348D8, symSize: 0x140 }
  - { offsetInCU: 0x1637E9, offset: 0x176ABC, size: 0x8, addend: 0x0, symName: __ZNSt3__110__function12__value_funcIFbPKcmEE4swapB8ue170006ERS5_, symObjAddr: 0x2CA10, symBinAddr: 0x35124, symSize: 0x198 }
  - { offsetInCU: 0x163923, offset: 0x176BF6, size: 0x8, addend: 0x0, symName: __ZNSt3__110__function12__value_funcIFvvEE4swapB8ue170006ERS3_, symObjAddr: 0x2D5F0, symBinAddr: 0x35D04, symSize: 0x198 }
  - { offsetInCU: 0x163A5D, offset: 0x176D30, size: 0x8, addend: 0x0, symName: __ZNSt3__110__function12__value_funcIFvRKNS_8multimapINS_12basic_stringIcNS_11char_traitsIcEENS_9allocatorIcEEEES8_N7httplib6detail2ciENS6_INS_4pairIKS8_S8_EEEEEEEE4swapB8ue170006ERSK_, symObjAddr: 0x2D870, symBinAddr: 0x35F84, symSize: 0x198 }
  - { offsetInCU: 0x163B97, offset: 0x176E6A, size: 0x8, addend: 0x0, symName: __ZN7httplib8DataSinkD1Ev, symObjAddr: 0x2C108, symBinAddr: 0x3481C, symSize: 0xBC }
  - { offsetInCU: 0x1641CD, offset: 0x1774A0, size: 0x8, addend: 0x0, symName: __ZN7httplib6detail12nocompressorD1Ev, symObjAddr: 0x2C0B0, symBinAddr: 0x347C4, symSize: 0x4 }
  - { offsetInCU: 0x1641F6, offset: 0x1774C9, size: 0x8, addend: 0x0, symName: __ZN7httplib6detail12nocompressorD0Ev, symObjAddr: 0x2C0B4, symBinAddr: 0x347C8, symSize: 0x4 }
  - { offsetInCU: 0x16421F, offset: 0x1774F2, size: 0x8, addend: 0x0, symName: __ZN7httplib6detail12nocompressor8compressEPKcmbNSt3__18functionIFbS3_mEEE, symObjAddr: 0x2C0B8, symBinAddr: 0x347CC, symSize: 0x50 }
  - { offsetInCU: 0x1642FA, offset: 0x1775CD, size: 0x8, addend: 0x0, symName: __ZN7httplib8DataSinkD1Ev, symObjAddr: 0x2C108, symBinAddr: 0x3481C, symSize: 0xBC }
  - { offsetInCU: 0x16448A, offset: 0x17775D, size: 0x8, addend: 0x0, symName: __ZN7httplib8DataSink19data_sink_streambufD1Ev, symObjAddr: 0x2C304, symBinAddr: 0x34A18, symSize: 0x4 }
  - { offsetInCU: 0x1644AD, offset: 0x177780, size: 0x8, addend: 0x0, symName: __ZN7httplib8DataSink19data_sink_streambufD1Ev, symObjAddr: 0x2C304, symBinAddr: 0x34A18, symSize: 0x4 }
  - { offsetInCU: 0x1644CA, offset: 0x17779D, size: 0x8, addend: 0x0, symName: __ZN7httplib8DataSink19data_sink_streambufD0Ev, symObjAddr: 0x2C308, symBinAddr: 0x34A1C, symSize: 0x14 }
  - { offsetInCU: 0x164534, offset: 0x177807, size: 0x8, addend: 0x0, symName: __ZN7httplib8DataSink19data_sink_streambuf6xsputnEPKcl, symObjAddr: 0x2C31C, symBinAddr: 0x34A30, symSize: 0x50 }
  - { offsetInCU: 0x1645F0, offset: 0x1778C3, size: 0x8, addend: 0x0, symName: __ZNSt3__110__function6__funcIZN7httplib6detail21write_content_chunkedIZNS2_10ClientImpl27write_content_with_providerERNS2_6StreamERKNS2_7RequestERNS2_5ErrorEEUlvE_NS3_10compressorEEEbS7_RKNS_8functionIFbmmRNS2_8DataSinkEEEERKT_RT0_SC_EUlPKcmE_NS_9allocatorIST_EEFbSS_mEED1Ev, symObjAddr: 0x2C36C, symBinAddr: 0x34A80, symSize: 0x4 }
  - { offsetInCU: 0x1645FC, offset: 0x1778CF, size: 0x8, addend: 0x0, symName: __ZNSt3__110__function6__funcIZN7httplib6detail21write_content_chunkedIZNS2_10ClientImpl27write_content_with_providerERNS2_6StreamERKNS2_7RequestERNS2_5ErrorEEUlvE_NS3_10compressorEEEbS7_RKNS_8functionIFbmmRNS2_8DataSinkEEEERKT_RT0_SC_EUlPKcmE_NS_9allocatorIST_EEFbSS_mEED1Ev, symObjAddr: 0x2C36C, symBinAddr: 0x34A80, symSize: 0x4 }
  - { offsetInCU: 0x164628, offset: 0x1778FB, size: 0x8, addend: 0x0, symName: __ZNSt3__110__function6__funcIZN7httplib6detail21write_content_chunkedIZNS2_10ClientImpl27write_content_with_providerERNS2_6StreamERKNS2_7RequestERNS2_5ErrorEEUlvE_NS3_10compressorEEEbS7_RKNS_8functionIFbmmRNS2_8DataSinkEEEERKT_RT0_SC_EUlPKcmE_NS_9allocatorIST_EEFbSS_mEED0Ev, symObjAddr: 0x2C370, symBinAddr: 0x34A84, symSize: 0x4 }
  - { offsetInCU: 0x164806, offset: 0x177AD9, size: 0x8, addend: 0x0, symName: __ZNKSt3__110__function6__funcIZN7httplib6detail21write_content_chunkedIZNS2_10ClientImpl27write_content_with_providerERNS2_6StreamERKNS2_7RequestERNS2_5ErrorEEUlvE_NS3_10compressorEEEbS7_RKNS_8functionIFbmmRNS2_8DataSinkEEEERKT_RT0_SC_EUlPKcmE_NS_9allocatorIST_EEFbSS_mEE7__cloneEv, symObjAddr: 0x2C374, symBinAddr: 0x34A88, symSize: 0x4C }
  - { offsetInCU: 0x164B43, offset: 0x177E16, size: 0x8, addend: 0x0, symName: __ZNKSt3__110__function6__funcIZN7httplib6detail21write_content_chunkedIZNS2_10ClientImpl27write_content_with_providerERNS2_6StreamERKNS2_7RequestERNS2_5ErrorEEUlvE_NS3_10compressorEEEbS7_RKNS_8functionIFbmmRNS2_8DataSinkEEEERKT_RT0_SC_EUlPKcmE_NS_9allocatorIST_EEFbSS_mEE7__cloneEPNS0_6__baseISW_EE, symObjAddr: 0x2C3C0, symBinAddr: 0x34AD4, symSize: 0x2C }
  - { offsetInCU: 0x164B7B, offset: 0x177E4E, size: 0x8, addend: 0x0, symName: __ZNKSt3__110__function6__funcIZN7httplib6detail21write_content_chunkedIZNS2_10ClientImpl27write_content_with_providerERNS2_6StreamERKNS2_7RequestERNS2_5ErrorEEUlvE_NS3_10compressorEEEbS7_RKNS_8functionIFbmmRNS2_8DataSinkEEEERKT_RT0_SC_EUlPKcmE_NS_9allocatorIST_EEFbSS_mEE7__cloneEPNS0_6__baseISW_EE, symObjAddr: 0x2C3C0, symBinAddr: 0x34AD4, symSize: 0x2C }
  - { offsetInCU: 0x164BAD, offset: 0x177E80, size: 0x8, addend: 0x0, symName: __ZNKSt3__110__function6__funcIZN7httplib6detail21write_content_chunkedIZNS2_10ClientImpl27write_content_with_providerERNS2_6StreamERKNS2_7RequestERNS2_5ErrorEEUlvE_NS3_10compressorEEEbS7_RKNS_8functionIFbmmRNS2_8DataSinkEEEERKT_RT0_SC_EUlPKcmE_NS_9allocatorIST_EEFbSS_mEE7__cloneEPNS0_6__baseISW_EE, symObjAddr: 0x2C3C0, symBinAddr: 0x34AD4, symSize: 0x2C }
  - { offsetInCU: 0x164CDA, offset: 0x177FAD, size: 0x8, addend: 0x0, symName: __ZNSt3__110__function6__funcIZN7httplib6detail21write_content_chunkedIZNS2_10ClientImpl27write_content_with_providerERNS2_6StreamERKNS2_7RequestERNS2_5ErrorEEUlvE_NS3_10compressorEEEbS7_RKNS_8functionIFbmmRNS2_8DataSinkEEEERKT_RT0_SC_EUlPKcmE_NS_9allocatorIST_EEFbSS_mEE7destroyEv, symObjAddr: 0x2C3EC, symBinAddr: 0x34B00, symSize: 0x4 }
  - { offsetInCU: 0x164D2D, offset: 0x178000, size: 0x8, addend: 0x0, symName: __ZNSt3__110__function6__funcIZN7httplib6detail21write_content_chunkedIZNS2_10ClientImpl27write_content_with_providerERNS2_6StreamERKNS2_7RequestERNS2_5ErrorEEUlvE_NS3_10compressorEEEbS7_RKNS_8functionIFbmmRNS2_8DataSinkEEEERKT_RT0_SC_EUlPKcmE_NS_9allocatorIST_EEFbSS_mEE18destroy_deallocateEv, symObjAddr: 0x2C3F0, symBinAddr: 0x34B04, symSize: 0x4 }
  - { offsetInCU: 0x164D62, offset: 0x178035, size: 0x8, addend: 0x0, symName: __ZNSt3__110__function6__funcIZN7httplib6detail21write_content_chunkedIZNS2_10ClientImpl27write_content_with_providerERNS2_6StreamERKNS2_7RequestERNS2_5ErrorEEUlvE_NS3_10compressorEEEbS7_RKNS_8functionIFbmmRNS2_8DataSinkEEEERKT_RT0_SC_EUlPKcmE_NS_9allocatorIST_EEFbSS_mEE18destroy_deallocateEv, symObjAddr: 0x2C3F0, symBinAddr: 0x34B04, symSize: 0x4 }
  - { offsetInCU: 0x164D87, offset: 0x17805A, size: 0x8, addend: 0x0, symName: __ZNSt3__110__function6__funcIZN7httplib6detail21write_content_chunkedIZNS2_10ClientImpl27write_content_with_providerERNS2_6StreamERKNS2_7RequestERNS2_5ErrorEEUlvE_NS3_10compressorEEEbS7_RKNS_8functionIFbmmRNS2_8DataSinkEEEERKT_RT0_SC_EUlPKcmE_NS_9allocatorIST_EEFbSS_mEE18destroy_deallocateEv, symObjAddr: 0x2C3F0, symBinAddr: 0x34B04, symSize: 0x4 }
  - { offsetInCU: 0x164DB7, offset: 0x17808A, size: 0x8, addend: 0x0, symName: __ZNSt3__110__function6__funcIZN7httplib6detail21write_content_chunkedIZNS2_10ClientImpl27write_content_with_providerERNS2_6StreamERKNS2_7RequestERNS2_5ErrorEEUlvE_NS3_10compressorEEEbS7_RKNS_8functionIFbmmRNS2_8DataSinkEEEERKT_RT0_SC_EUlPKcmE_NS_9allocatorIST_EEFbSS_mEE18destroy_deallocateEv, symObjAddr: 0x2C3F0, symBinAddr: 0x34B04, symSize: 0x4 }
  - { offsetInCU: 0x164DE1, offset: 0x1780B4, size: 0x8, addend: 0x0, symName: __ZNSt3__110__function6__funcIZN7httplib6detail21write_content_chunkedIZNS2_10ClientImpl27write_content_with_providerERNS2_6StreamERKNS2_7RequestERNS2_5ErrorEEUlvE_NS3_10compressorEEEbS7_RKNS_8functionIFbmmRNS2_8DataSinkEEEERKT_RT0_SC_EUlPKcmE_NS_9allocatorIST_EEFbSS_mEE18destroy_deallocateEv, symObjAddr: 0x2C3F0, symBinAddr: 0x34B04, symSize: 0x4 }
  - { offsetInCU: 0x164E7A, offset: 0x17814D, size: 0x8, addend: 0x0, symName: __ZNSt3__110__function6__funcIZN7httplib6detail21write_content_chunkedIZNS2_10ClientImpl27write_content_with_providerERNS2_6StreamERKNS2_7RequestERNS2_5ErrorEEUlvE_NS3_10compressorEEEbS7_RKNS_8functionIFbmmRNS2_8DataSinkEEEERKT_RT0_SC_EUlPKcmE_NS_9allocatorIST_EEFbSS_mEEclEOSS_Om, symObjAddr: 0x2C3F4, symBinAddr: 0x34B08, symSize: 0x10 }
  - { offsetInCU: 0x164F69, offset: 0x17823C, size: 0x8, addend: 0x0, symName: __ZNKSt3__110__function6__funcIZN7httplib6detail21write_content_chunkedIZNS2_10ClientImpl27write_content_with_providerERNS2_6StreamERKNS2_7RequestERNS2_5ErrorEEUlvE_NS3_10compressorEEEbS7_RKNS_8functionIFbmmRNS2_8DataSinkEEEERKT_RT0_SC_EUlPKcmE_NS_9allocatorIST_EEFbSS_mEE6targetERKSt9type_info, symObjAddr: 0x2C404, symBinAddr: 0x34B18, symSize: 0x74 }
  - { offsetInCU: 0x164FF4, offset: 0x1782C7, size: 0x8, addend: 0x0, symName: __ZNKSt3__110__function6__funcIZN7httplib6detail21write_content_chunkedIZNS2_10ClientImpl27write_content_with_providerERNS2_6StreamERKNS2_7RequestERNS2_5ErrorEEUlvE_NS3_10compressorEEEbS7_RKNS_8functionIFbmmRNS2_8DataSinkEEEERKT_RT0_SC_EUlPKcmE_NS_9allocatorIST_EEFbSS_mEE11target_typeEv, symObjAddr: 0x2C478, symBinAddr: 0x34B8C, symSize: 0xC }
  - { offsetInCU: 0x1651E4, offset: 0x1784B7, size: 0x8, addend: 0x0, symName: __ZNSt3__110__function6__funcIZZN7httplib6detail21write_content_chunkedIZNS2_10ClientImpl27write_content_with_providerERNS2_6StreamERKNS2_7RequestERNS2_5ErrorEEUlvE_NS3_10compressorEEEbS7_RKNS_8functionIFbmmRNS2_8DataSinkEEEERKT_RT0_SC_ENKUlPKcmE_clESS_mEUlSS_mE_NS_9allocatorISU_EEFbSS_mEED1Ev, symObjAddr: 0x2C90C, symBinAddr: 0x35020, symSize: 0x4 }
  - { offsetInCU: 0x165210, offset: 0x1784E3, size: 0x8, addend: 0x0, symName: __ZNSt3__110__function6__funcIZZN7httplib6detail21write_content_chunkedIZNS2_10ClientImpl27write_content_with_providerERNS2_6StreamERKNS2_7RequestERNS2_5ErrorEEUlvE_NS3_10compressorEEEbS7_RKNS_8functionIFbmmRNS2_8DataSinkEEEERKT_RT0_SC_ENKUlPKcmE_clESS_mEUlSS_mE_NS_9allocatorISU_EEFbSS_mEED0Ev, symObjAddr: 0x2C910, symBinAddr: 0x35024, symSize: 0x4 }
  - { offsetInCU: 0x165414, offset: 0x1786E7, size: 0x8, addend: 0x0, symName: __ZNKSt3__110__function6__funcIZZN7httplib6detail21write_content_chunkedIZNS2_10ClientImpl27write_content_with_providerERNS2_6StreamERKNS2_7RequestERNS2_5ErrorEEUlvE_NS3_10compressorEEEbS7_RKNS_8functionIFbmmRNS2_8DataSinkEEEERKT_RT0_SC_ENKUlPKcmE_clESS_mEUlSS_mE_NS_9allocatorISU_EEFbSS_mEE7__cloneEv, symObjAddr: 0x2C914, symBinAddr: 0x35028, symSize: 0x38 }
  - { offsetInCU: 0x16571F, offset: 0x1789F2, size: 0x8, addend: 0x0, symName: __ZNKSt3__110__function6__funcIZZN7httplib6detail21write_content_chunkedIZNS2_10ClientImpl27write_content_with_providerERNS2_6StreamERKNS2_7RequestERNS2_5ErrorEEUlvE_NS3_10compressorEEEbS7_RKNS_8functionIFbmmRNS2_8DataSinkEEEERKT_RT0_SC_ENKUlPKcmE_clESS_mEUlSS_mE_NS_9allocatorISU_EEFbSS_mEE7__cloneEPNS0_6__baseISX_EE, symObjAddr: 0x2C94C, symBinAddr: 0x35060, symSize: 0x18 }
  - { offsetInCU: 0x165757, offset: 0x178A2A, size: 0x8, addend: 0x0, symName: __ZNKSt3__110__function6__funcIZZN7httplib6detail21write_content_chunkedIZNS2_10ClientImpl27write_content_with_providerERNS2_6StreamERKNS2_7RequestERNS2_5ErrorEEUlvE_NS3_10compressorEEEbS7_RKNS_8functionIFbmmRNS2_8DataSinkEEEERKT_RT0_SC_ENKUlPKcmE_clESS_mEUlSS_mE_NS_9allocatorISU_EEFbSS_mEE7__cloneEPNS0_6__baseISX_EE, symObjAddr: 0x2C94C, symBinAddr: 0x35060, symSize: 0x18 }
  - { offsetInCU: 0x165789, offset: 0x178A5C, size: 0x8, addend: 0x0, symName: __ZNKSt3__110__function6__funcIZZN7httplib6detail21write_content_chunkedIZNS2_10ClientImpl27write_content_with_providerERNS2_6StreamERKNS2_7RequestERNS2_5ErrorEEUlvE_NS3_10compressorEEEbS7_RKNS_8functionIFbmmRNS2_8DataSinkEEEERKT_RT0_SC_ENKUlPKcmE_clESS_mEUlSS_mE_NS_9allocatorISU_EEFbSS_mEE7__cloneEPNS0_6__baseISX_EE, symObjAddr: 0x2C94C, symBinAddr: 0x35060, symSize: 0x18 }
  - { offsetInCU: 0x165829, offset: 0x178AFC, size: 0x8, addend: 0x0, symName: __ZNSt3__110__function6__funcIZZN7httplib6detail21write_content_chunkedIZNS2_10ClientImpl27write_content_with_providerERNS2_6StreamERKNS2_7RequestERNS2_5ErrorEEUlvE_NS3_10compressorEEEbS7_RKNS_8functionIFbmmRNS2_8DataSinkEEEERKT_RT0_SC_ENKUlPKcmE_clESS_mEUlSS_mE_NS_9allocatorISU_EEFbSS_mEE7destroyEv, symObjAddr: 0x2C964, symBinAddr: 0x35078, symSize: 0x4 }
  - { offsetInCU: 0x16587C, offset: 0x178B4F, size: 0x8, addend: 0x0, symName: __ZNSt3__110__function6__funcIZZN7httplib6detail21write_content_chunkedIZNS2_10ClientImpl27write_content_with_providerERNS2_6StreamERKNS2_7RequestERNS2_5ErrorEEUlvE_NS3_10compressorEEEbS7_RKNS_8functionIFbmmRNS2_8DataSinkEEEERKT_RT0_SC_ENKUlPKcmE_clESS_mEUlSS_mE_NS_9allocatorISU_EEFbSS_mEE18destroy_deallocateEv, symObjAddr: 0x2C968, symBinAddr: 0x3507C, symSize: 0x4 }
  - { offsetInCU: 0x1658B1, offset: 0x178B84, size: 0x8, addend: 0x0, symName: __ZNSt3__110__function6__funcIZZN7httplib6detail21write_content_chunkedIZNS2_10ClientImpl27write_content_with_providerERNS2_6StreamERKNS2_7RequestERNS2_5ErrorEEUlvE_NS3_10compressorEEEbS7_RKNS_8functionIFbmmRNS2_8DataSinkEEEERKT_RT0_SC_ENKUlPKcmE_clESS_mEUlSS_mE_NS_9allocatorISU_EEFbSS_mEE18destroy_deallocateEv, symObjAddr: 0x2C968, symBinAddr: 0x3507C, symSize: 0x4 }
  - { offsetInCU: 0x1658D6, offset: 0x178BA9, size: 0x8, addend: 0x0, symName: __ZNSt3__110__function6__funcIZZN7httplib6detail21write_content_chunkedIZNS2_10ClientImpl27write_content_with_providerERNS2_6StreamERKNS2_7RequestERNS2_5ErrorEEUlvE_NS3_10compressorEEEbS7_RKNS_8functionIFbmmRNS2_8DataSinkEEEERKT_RT0_SC_ENKUlPKcmE_clESS_mEUlSS_mE_NS_9allocatorISU_EEFbSS_mEE18destroy_deallocateEv, symObjAddr: 0x2C968, symBinAddr: 0x3507C, symSize: 0x4 }
  - { offsetInCU: 0x165905, offset: 0x178BD8, size: 0x8, addend: 0x0, symName: __ZNSt3__110__function6__funcIZZN7httplib6detail21write_content_chunkedIZNS2_10ClientImpl27write_content_with_providerERNS2_6StreamERKNS2_7RequestERNS2_5ErrorEEUlvE_NS3_10compressorEEEbS7_RKNS_8functionIFbmmRNS2_8DataSinkEEEERKT_RT0_SC_ENKUlPKcmE_clESS_mEUlSS_mE_NS_9allocatorISU_EEFbSS_mEE18destroy_deallocateEv, symObjAddr: 0x2C968, symBinAddr: 0x3507C, symSize: 0x4 }
  - { offsetInCU: 0x16592E, offset: 0x178C01, size: 0x8, addend: 0x0, symName: __ZNSt3__110__function6__funcIZZN7httplib6detail21write_content_chunkedIZNS2_10ClientImpl27write_content_with_providerERNS2_6StreamERKNS2_7RequestERNS2_5ErrorEEUlvE_NS3_10compressorEEEbS7_RKNS_8functionIFbmmRNS2_8DataSinkEEEERKT_RT0_SC_ENKUlPKcmE_clESS_mEUlSS_mE_NS_9allocatorISU_EEFbSS_mEE18destroy_deallocateEv, symObjAddr: 0x2C968, symBinAddr: 0x3507C, symSize: 0x4 }
  - { offsetInCU: 0x1659FE, offset: 0x178CD1, size: 0x8, addend: 0x0, symName: __ZNSt3__110__function6__funcIZZN7httplib6detail21write_content_chunkedIZNS2_10ClientImpl27write_content_with_providerERNS2_6StreamERKNS2_7RequestERNS2_5ErrorEEUlvE_NS3_10compressorEEEbS7_RKNS_8functionIFbmmRNS2_8DataSinkEEEERKT_RT0_SC_ENKUlPKcmE_clESS_mEUlSS_mE_NS_9allocatorISU_EEFbSS_mEEclEOSS_Om, symObjAddr: 0x2C96C, symBinAddr: 0x35080, symSize: 0x24 }
  - { offsetInCU: 0x165B16, offset: 0x178DE9, size: 0x8, addend: 0x0, symName: __ZNKSt3__110__function6__funcIZZN7httplib6detail21write_content_chunkedIZNS2_10ClientImpl27write_content_with_providerERNS2_6StreamERKNS2_7RequestERNS2_5ErrorEEUlvE_NS3_10compressorEEEbS7_RKNS_8functionIFbmmRNS2_8DataSinkEEEERKT_RT0_SC_ENKUlPKcmE_clESS_mEUlSS_mE_NS_9allocatorISU_EEFbSS_mEE6targetERKSt9type_info, symObjAddr: 0x2C990, symBinAddr: 0x350A4, symSize: 0x74 }
  - { offsetInCU: 0x165BA1, offset: 0x178E74, size: 0x8, addend: 0x0, symName: __ZNKSt3__110__function6__funcIZZN7httplib6detail21write_content_chunkedIZNS2_10ClientImpl27write_content_with_providerERNS2_6StreamERKNS2_7RequestERNS2_5ErrorEEUlvE_NS3_10compressorEEEbS7_RKNS_8functionIFbmmRNS2_8DataSinkEEEERKT_RT0_SC_ENKUlPKcmE_clESS_mEUlSS_mE_NS_9allocatorISU_EEFbSS_mEE11target_typeEv, symObjAddr: 0x2CA04, symBinAddr: 0x35118, symSize: 0xC }
  - { offsetInCU: 0x165BCF, offset: 0x178EA2, size: 0x8, addend: 0x0, symName: __ZNSt3__110__function6__funcIZN7httplib6detail21write_content_chunkedIZNS2_10ClientImpl27write_content_with_providerERNS2_6StreamERKNS2_7RequestERNS2_5ErrorEEUlvE_NS3_10compressorEEEbS7_RKNS_8functionIFbmmRNS2_8DataSinkEEEERKT_RT0_SC_EUlvE_NS_9allocatorISR_EEFvvEED1Ev, symObjAddr: 0x2CBA8, symBinAddr: 0x352BC, symSize: 0x4 }
  - { offsetInCU: 0x165BFB, offset: 0x178ECE, size: 0x8, addend: 0x0, symName: __ZNSt3__110__function6__funcIZN7httplib6detail21write_content_chunkedIZNS2_10ClientImpl27write_content_with_providerERNS2_6StreamERKNS2_7RequestERNS2_5ErrorEEUlvE_NS3_10compressorEEEbS7_RKNS_8functionIFbmmRNS2_8DataSinkEEEERKT_RT0_SC_EUlvE_NS_9allocatorISR_EEFvvEED0Ev, symObjAddr: 0x2CBAC, symBinAddr: 0x352C0, symSize: 0x4 }
  - { offsetInCU: 0x165DFF, offset: 0x1790D2, size: 0x8, addend: 0x0, symName: __ZNKSt3__110__function6__funcIZN7httplib6detail21write_content_chunkedIZNS2_10ClientImpl27write_content_with_providerERNS2_6StreamERKNS2_7RequestERNS2_5ErrorEEUlvE_NS3_10compressorEEEbS7_RKNS_8functionIFbmmRNS2_8DataSinkEEEERKT_RT0_SC_EUlvE_NS_9allocatorISR_EEFvvEE7__cloneEv, symObjAddr: 0x2CBB0, symBinAddr: 0x352C4, symSize: 0x38 }
  - { offsetInCU: 0x16610A, offset: 0x1793DD, size: 0x8, addend: 0x0, symName: __ZNKSt3__110__function6__funcIZN7httplib6detail21write_content_chunkedIZNS2_10ClientImpl27write_content_with_providerERNS2_6StreamERKNS2_7RequestERNS2_5ErrorEEUlvE_NS3_10compressorEEEbS7_RKNS_8functionIFbmmRNS2_8DataSinkEEEERKT_RT0_SC_EUlvE_NS_9allocatorISR_EEFvvEE7__cloneEPNS0_6__baseISU_EE, symObjAddr: 0x2CBE8, symBinAddr: 0x352FC, symSize: 0x18 }
  - { offsetInCU: 0x166142, offset: 0x179415, size: 0x8, addend: 0x0, symName: __ZNKSt3__110__function6__funcIZN7httplib6detail21write_content_chunkedIZNS2_10ClientImpl27write_content_with_providerERNS2_6StreamERKNS2_7RequestERNS2_5ErrorEEUlvE_NS3_10compressorEEEbS7_RKNS_8functionIFbmmRNS2_8DataSinkEEEERKT_RT0_SC_EUlvE_NS_9allocatorISR_EEFvvEE7__cloneEPNS0_6__baseISU_EE, symObjAddr: 0x2CBE8, symBinAddr: 0x352FC, symSize: 0x18 }
  - { offsetInCU: 0x166174, offset: 0x179447, size: 0x8, addend: 0x0, symName: __ZNKSt3__110__function6__funcIZN7httplib6detail21write_content_chunkedIZNS2_10ClientImpl27write_content_with_providerERNS2_6StreamERKNS2_7RequestERNS2_5ErrorEEUlvE_NS3_10compressorEEEbS7_RKNS_8functionIFbmmRNS2_8DataSinkEEEERKT_RT0_SC_EUlvE_NS_9allocatorISR_EEFvvEE7__cloneEPNS0_6__baseISU_EE, symObjAddr: 0x2CBE8, symBinAddr: 0x352FC, symSize: 0x18 }
  - { offsetInCU: 0x166214, offset: 0x1794E7, size: 0x8, addend: 0x0, symName: __ZNSt3__110__function6__funcIZN7httplib6detail21write_content_chunkedIZNS2_10ClientImpl27write_content_with_providerERNS2_6StreamERKNS2_7RequestERNS2_5ErrorEEUlvE_NS3_10compressorEEEbS7_RKNS_8functionIFbmmRNS2_8DataSinkEEEERKT_RT0_SC_EUlvE_NS_9allocatorISR_EEFvvEE7destroyEv, symObjAddr: 0x2CC00, symBinAddr: 0x35314, symSize: 0x4 }
  - { offsetInCU: 0x166267, offset: 0x17953A, size: 0x8, addend: 0x0, symName: __ZNSt3__110__function6__funcIZN7httplib6detail21write_content_chunkedIZNS2_10ClientImpl27write_content_with_providerERNS2_6StreamERKNS2_7RequestERNS2_5ErrorEEUlvE_NS3_10compressorEEEbS7_RKNS_8functionIFbmmRNS2_8DataSinkEEEERKT_RT0_SC_EUlvE_NS_9allocatorISR_EEFvvEE18destroy_deallocateEv, symObjAddr: 0x2CC04, symBinAddr: 0x35318, symSize: 0x4 }
  - { offsetInCU: 0x16629C, offset: 0x17956F, size: 0x8, addend: 0x0, symName: __ZNSt3__110__function6__funcIZN7httplib6detail21write_content_chunkedIZNS2_10ClientImpl27write_content_with_providerERNS2_6StreamERKNS2_7RequestERNS2_5ErrorEEUlvE_NS3_10compressorEEEbS7_RKNS_8functionIFbmmRNS2_8DataSinkEEEERKT_RT0_SC_EUlvE_NS_9allocatorISR_EEFvvEE18destroy_deallocateEv, symObjAddr: 0x2CC04, symBinAddr: 0x35318, symSize: 0x4 }
  - { offsetInCU: 0x1662C1, offset: 0x179594, size: 0x8, addend: 0x0, symName: __ZNSt3__110__function6__funcIZN7httplib6detail21write_content_chunkedIZNS2_10ClientImpl27write_content_with_providerERNS2_6StreamERKNS2_7RequestERNS2_5ErrorEEUlvE_NS3_10compressorEEEbS7_RKNS_8functionIFbmmRNS2_8DataSinkEEEERKT_RT0_SC_EUlvE_NS_9allocatorISR_EEFvvEE18destroy_deallocateEv, symObjAddr: 0x2CC04, symBinAddr: 0x35318, symSize: 0x4 }
  - { offsetInCU: 0x1662F0, offset: 0x1795C3, size: 0x8, addend: 0x0, symName: __ZNSt3__110__function6__funcIZN7httplib6detail21write_content_chunkedIZNS2_10ClientImpl27write_content_with_providerERNS2_6StreamERKNS2_7RequestERNS2_5ErrorEEUlvE_NS3_10compressorEEEbS7_RKNS_8functionIFbmmRNS2_8DataSinkEEEERKT_RT0_SC_EUlvE_NS_9allocatorISR_EEFvvEE18destroy_deallocateEv, symObjAddr: 0x2CC04, symBinAddr: 0x35318, symSize: 0x4 }
  - { offsetInCU: 0x166319, offset: 0x1795EC, size: 0x8, addend: 0x0, symName: __ZNSt3__110__function6__funcIZN7httplib6detail21write_content_chunkedIZNS2_10ClientImpl27write_content_with_providerERNS2_6StreamERKNS2_7RequestERNS2_5ErrorEEUlvE_NS3_10compressorEEEbS7_RKNS_8functionIFbmmRNS2_8DataSinkEEEERKT_RT0_SC_EUlvE_NS_9allocatorISR_EEFvvEE18destroy_deallocateEv, symObjAddr: 0x2CC04, symBinAddr: 0x35318, symSize: 0x4 }
  - { offsetInCU: 0x166399, offset: 0x17966C, size: 0x8, addend: 0x0, symName: __ZNSt3__110__function6__funcIZN7httplib6detail21write_content_chunkedIZNS2_10ClientImpl27write_content_with_providerERNS2_6StreamERKNS2_7RequestERNS2_5ErrorEEUlvE_NS3_10compressorEEEbS7_RKNS_8functionIFbmmRNS2_8DataSinkEEEERKT_RT0_SC_EUlvE_NS_9allocatorISR_EEFvvEEclEv, symObjAddr: 0x2CC08, symBinAddr: 0x3531C, symSize: 0xC }
  - { offsetInCU: 0x1663C4, offset: 0x179697, size: 0x8, addend: 0x0, symName: __ZNSt3__110__function6__funcIZN7httplib6detail21write_content_chunkedIZNS2_10ClientImpl27write_content_with_providerERNS2_6StreamERKNS2_7RequestERNS2_5ErrorEEUlvE_NS3_10compressorEEEbS7_RKNS_8functionIFbmmRNS2_8DataSinkEEEERKT_RT0_SC_EUlvE_NS_9allocatorISR_EEFvvEEclEv, symObjAddr: 0x2CC08, symBinAddr: 0x3531C, symSize: 0xC }
  - { offsetInCU: 0x1663E4, offset: 0x1796B7, size: 0x8, addend: 0x0, symName: __ZNSt3__110__function6__funcIZN7httplib6detail21write_content_chunkedIZNS2_10ClientImpl27write_content_with_providerERNS2_6StreamERKNS2_7RequestERNS2_5ErrorEEUlvE_NS3_10compressorEEEbS7_RKNS_8functionIFbmmRNS2_8DataSinkEEEERKT_RT0_SC_EUlvE_NS_9allocatorISR_EEFvvEEclEv, symObjAddr: 0x2CC08, symBinAddr: 0x3531C, symSize: 0xC }
  - { offsetInCU: 0x166403, offset: 0x1796D6, size: 0x8, addend: 0x0, symName: __ZNSt3__110__function6__funcIZN7httplib6detail21write_content_chunkedIZNS2_10ClientImpl27write_content_with_providerERNS2_6StreamERKNS2_7RequestERNS2_5ErrorEEUlvE_NS3_10compressorEEEbS7_RKNS_8functionIFbmmRNS2_8DataSinkEEEERKT_RT0_SC_EUlvE_NS_9allocatorISR_EEFvvEEclEv, symObjAddr: 0x2CC08, symBinAddr: 0x3531C, symSize: 0xC }
  - { offsetInCU: 0x166423, offset: 0x1796F6, size: 0x8, addend: 0x0, symName: __ZNSt3__110__function6__funcIZN7httplib6detail21write_content_chunkedIZNS2_10ClientImpl27write_content_with_providerERNS2_6StreamERKNS2_7RequestERNS2_5ErrorEEUlvE_NS3_10compressorEEEbS7_RKNS_8functionIFbmmRNS2_8DataSinkEEEERKT_RT0_SC_EUlvE_NS_9allocatorISR_EEFvvEEclEv, symObjAddr: 0x2CC08, symBinAddr: 0x3531C, symSize: 0xC }
  - { offsetInCU: 0x166459, offset: 0x17972C, size: 0x8, addend: 0x0, symName: __ZNKSt3__110__function6__funcIZN7httplib6detail21write_content_chunkedIZNS2_10ClientImpl27write_content_with_providerERNS2_6StreamERKNS2_7RequestERNS2_5ErrorEEUlvE_NS3_10compressorEEEbS7_RKNS_8functionIFbmmRNS2_8DataSinkEEEERKT_RT0_SC_EUlvE_NS_9allocatorISR_EEFvvEE6targetERKSt9type_info, symObjAddr: 0x2CC14, symBinAddr: 0x35328, symSize: 0x74 }
  - { offsetInCU: 0x1664E4, offset: 0x1797B7, size: 0x8, addend: 0x0, symName: __ZNKSt3__110__function6__funcIZN7httplib6detail21write_content_chunkedIZNS2_10ClientImpl27write_content_with_providerERNS2_6StreamERKNS2_7RequestERNS2_5ErrorEEUlvE_NS3_10compressorEEEbS7_RKNS_8functionIFbmmRNS2_8DataSinkEEEERKT_RT0_SC_EUlvE_NS_9allocatorISR_EEFvvEE11target_typeEv, symObjAddr: 0x2CC88, symBinAddr: 0x3539C, symSize: 0xC }
  - { offsetInCU: 0x1666D4, offset: 0x1799A7, size: 0x8, addend: 0x0, symName: __ZNSt3__110__function6__funcIZZN7httplib6detail21write_content_chunkedIZNS2_10ClientImpl27write_content_with_providerERNS2_6StreamERKNS2_7RequestERNS2_5ErrorEEUlvE_NS3_10compressorEEEbS7_RKNS_8functionIFbmmRNS2_8DataSinkEEEERKT_RT0_SC_ENKUlPKNS_8multimapINS_12basic_stringIcNS_11char_traitsIcEENS_9allocatorIcEEEESX_NS3_2ciENSV_INS_4pairIKSX_SX_EEEEEEE_clES15_EUlPKcmE_NSV_IS19_EEFbS18_mEED1Ev, symObjAddr: 0x2D4EC, symBinAddr: 0x35C00, symSize: 0x4 }
  - { offsetInCU: 0x166700, offset: 0x1799D3, size: 0x8, addend: 0x0, symName: __ZNSt3__110__function6__funcIZZN7httplib6detail21write_content_chunkedIZNS2_10ClientImpl27write_content_with_providerERNS2_6StreamERKNS2_7RequestERNS2_5ErrorEEUlvE_NS3_10compressorEEEbS7_RKNS_8functionIFbmmRNS2_8DataSinkEEEERKT_RT0_SC_ENKUlPKNS_8multimapINS_12basic_stringIcNS_11char_traitsIcEENS_9allocatorIcEEEESX_NS3_2ciENSV_INS_4pairIKSX_SX_EEEEEEE_clES15_EUlPKcmE_NSV_IS19_EEFbS18_mEED0Ev, symObjAddr: 0x2D4F0, symBinAddr: 0x35C04, symSize: 0x4 }
  - { offsetInCU: 0x166904, offset: 0x179BD7, size: 0x8, addend: 0x0, symName: __ZNKSt3__110__function6__funcIZZN7httplib6detail21write_content_chunkedIZNS2_10ClientImpl27write_content_with_providerERNS2_6StreamERKNS2_7RequestERNS2_5ErrorEEUlvE_NS3_10compressorEEEbS7_RKNS_8functionIFbmmRNS2_8DataSinkEEEERKT_RT0_SC_ENKUlPKNS_8multimapINS_12basic_stringIcNS_11char_traitsIcEENS_9allocatorIcEEEESX_NS3_2ciENSV_INS_4pairIKSX_SX_EEEEEEE_clES15_EUlPKcmE_NSV_IS19_EEFbS18_mEE7__cloneEv, symObjAddr: 0x2D4F4, symBinAddr: 0x35C08, symSize: 0x38 }
  - { offsetInCU: 0x166C0F, offset: 0x179EE2, size: 0x8, addend: 0x0, symName: __ZNKSt3__110__function6__funcIZZN7httplib6detail21write_content_chunkedIZNS2_10ClientImpl27write_content_with_providerERNS2_6StreamERKNS2_7RequestERNS2_5ErrorEEUlvE_NS3_10compressorEEEbS7_RKNS_8functionIFbmmRNS2_8DataSinkEEEERKT_RT0_SC_ENKUlPKNS_8multimapINS_12basic_stringIcNS_11char_traitsIcEENS_9allocatorIcEEEESX_NS3_2ciENSV_INS_4pairIKSX_SX_EEEEEEE_clES15_EUlPKcmE_NSV_IS19_EEFbS18_mEE7__cloneEPNS0_6__baseIS1B_EE, symObjAddr: 0x2D52C, symBinAddr: 0x35C40, symSize: 0x18 }
  - { offsetInCU: 0x166C47, offset: 0x179F1A, size: 0x8, addend: 0x0, symName: __ZNKSt3__110__function6__funcIZZN7httplib6detail21write_content_chunkedIZNS2_10ClientImpl27write_content_with_providerERNS2_6StreamERKNS2_7RequestERNS2_5ErrorEEUlvE_NS3_10compressorEEEbS7_RKNS_8functionIFbmmRNS2_8DataSinkEEEERKT_RT0_SC_ENKUlPKNS_8multimapINS_12basic_stringIcNS_11char_traitsIcEENS_9allocatorIcEEEESX_NS3_2ciENSV_INS_4pairIKSX_SX_EEEEEEE_clES15_EUlPKcmE_NSV_IS19_EEFbS18_mEE7__cloneEPNS0_6__baseIS1B_EE, symObjAddr: 0x2D52C, symBinAddr: 0x35C40, symSize: 0x18 }
  - { offsetInCU: 0x166C79, offset: 0x179F4C, size: 0x8, addend: 0x0, symName: __ZNKSt3__110__function6__funcIZZN7httplib6detail21write_content_chunkedIZNS2_10ClientImpl27write_content_with_providerERNS2_6StreamERKNS2_7RequestERNS2_5ErrorEEUlvE_NS3_10compressorEEEbS7_RKNS_8functionIFbmmRNS2_8DataSinkEEEERKT_RT0_SC_ENKUlPKNS_8multimapINS_12basic_stringIcNS_11char_traitsIcEENS_9allocatorIcEEEESX_NS3_2ciENSV_INS_4pairIKSX_SX_EEEEEEE_clES15_EUlPKcmE_NSV_IS19_EEFbS18_mEE7__cloneEPNS0_6__baseIS1B_EE, symObjAddr: 0x2D52C, symBinAddr: 0x35C40, symSize: 0x18 }
  - { offsetInCU: 0x166D19, offset: 0x179FEC, size: 0x8, addend: 0x0, symName: __ZNSt3__110__function6__funcIZZN7httplib6detail21write_content_chunkedIZNS2_10ClientImpl27write_content_with_providerERNS2_6StreamERKNS2_7RequestERNS2_5ErrorEEUlvE_NS3_10compressorEEEbS7_RKNS_8functionIFbmmRNS2_8DataSinkEEEERKT_RT0_SC_ENKUlPKNS_8multimapINS_12basic_stringIcNS_11char_traitsIcEENS_9allocatorIcEEEESX_NS3_2ciENSV_INS_4pairIKSX_SX_EEEEEEE_clES15_EUlPKcmE_NSV_IS19_EEFbS18_mEE7destroyEv, symObjAddr: 0x2D544, symBinAddr: 0x35C58, symSize: 0x4 }
  - { offsetInCU: 0x166D6C, offset: 0x17A03F, size: 0x8, addend: 0x0, symName: __ZNSt3__110__function6__funcIZZN7httplib6detail21write_content_chunkedIZNS2_10ClientImpl27write_content_with_providerERNS2_6StreamERKNS2_7RequestERNS2_5ErrorEEUlvE_NS3_10compressorEEEbS7_RKNS_8functionIFbmmRNS2_8DataSinkEEEERKT_RT0_SC_ENKUlPKNS_8multimapINS_12basic_stringIcNS_11char_traitsIcEENS_9allocatorIcEEEESX_NS3_2ciENSV_INS_4pairIKSX_SX_EEEEEEE_clES15_EUlPKcmE_NSV_IS19_EEFbS18_mEE18destroy_deallocateEv, symObjAddr: 0x2D548, symBinAddr: 0x35C5C, symSize: 0x4 }
  - { offsetInCU: 0x166DA1, offset: 0x17A074, size: 0x8, addend: 0x0, symName: __ZNSt3__110__function6__funcIZZN7httplib6detail21write_content_chunkedIZNS2_10ClientImpl27write_content_with_providerERNS2_6StreamERKNS2_7RequestERNS2_5ErrorEEUlvE_NS3_10compressorEEEbS7_RKNS_8functionIFbmmRNS2_8DataSinkEEEERKT_RT0_SC_ENKUlPKNS_8multimapINS_12basic_stringIcNS_11char_traitsIcEENS_9allocatorIcEEEESX_NS3_2ciENSV_INS_4pairIKSX_SX_EEEEEEE_clES15_EUlPKcmE_NSV_IS19_EEFbS18_mEE18destroy_deallocateEv, symObjAddr: 0x2D548, symBinAddr: 0x35C5C, symSize: 0x4 }
  - { offsetInCU: 0x166DC6, offset: 0x17A099, size: 0x8, addend: 0x0, symName: __ZNSt3__110__function6__funcIZZN7httplib6detail21write_content_chunkedIZNS2_10ClientImpl27write_content_with_providerERNS2_6StreamERKNS2_7RequestERNS2_5ErrorEEUlvE_NS3_10compressorEEEbS7_RKNS_8functionIFbmmRNS2_8DataSinkEEEERKT_RT0_SC_ENKUlPKNS_8multimapINS_12basic_stringIcNS_11char_traitsIcEENS_9allocatorIcEEEESX_NS3_2ciENSV_INS_4pairIKSX_SX_EEEEEEE_clES15_EUlPKcmE_NSV_IS19_EEFbS18_mEE18destroy_deallocateEv, symObjAddr: 0x2D548, symBinAddr: 0x35C5C, symSize: 0x4 }
  - { offsetInCU: 0x166DF5, offset: 0x17A0C8, size: 0x8, addend: 0x0, symName: __ZNSt3__110__function6__funcIZZN7httplib6detail21write_content_chunkedIZNS2_10ClientImpl27write_content_with_providerERNS2_6StreamERKNS2_7RequestERNS2_5ErrorEEUlvE_NS3_10compressorEEEbS7_RKNS_8functionIFbmmRNS2_8DataSinkEEEERKT_RT0_SC_ENKUlPKNS_8multimapINS_12basic_stringIcNS_11char_traitsIcEENS_9allocatorIcEEEESX_NS3_2ciENSV_INS_4pairIKSX_SX_EEEEEEE_clES15_EUlPKcmE_NSV_IS19_EEFbS18_mEE18destroy_deallocateEv, symObjAddr: 0x2D548, symBinAddr: 0x35C5C, symSize: 0x4 }
  - { offsetInCU: 0x166E1E, offset: 0x17A0F1, size: 0x8, addend: 0x0, symName: __ZNSt3__110__function6__funcIZZN7httplib6detail21write_content_chunkedIZNS2_10ClientImpl27write_content_with_providerERNS2_6StreamERKNS2_7RequestERNS2_5ErrorEEUlvE_NS3_10compressorEEEbS7_RKNS_8functionIFbmmRNS2_8DataSinkEEEERKT_RT0_SC_ENKUlPKNS_8multimapINS_12basic_stringIcNS_11char_traitsIcEENS_9allocatorIcEEEESX_NS3_2ciENSV_INS_4pairIKSX_SX_EEEEEEE_clES15_EUlPKcmE_NSV_IS19_EEFbS18_mEE18destroy_deallocateEv, symObjAddr: 0x2D548, symBinAddr: 0x35C5C, symSize: 0x4 }
  - { offsetInCU: 0x166EEE, offset: 0x17A1C1, size: 0x8, addend: 0x0, symName: __ZNSt3__110__function6__funcIZZN7httplib6detail21write_content_chunkedIZNS2_10ClientImpl27write_content_with_providerERNS2_6StreamERKNS2_7RequestERNS2_5ErrorEEUlvE_NS3_10compressorEEEbS7_RKNS_8functionIFbmmRNS2_8DataSinkEEEERKT_RT0_SC_ENKUlPKNS_8multimapINS_12basic_stringIcNS_11char_traitsIcEENS_9allocatorIcEEEESX_NS3_2ciENSV_INS_4pairIKSX_SX_EEEEEEE_clES15_EUlPKcmE_NSV_IS19_EEFbS18_mEEclEOS18_Om, symObjAddr: 0x2D54C, symBinAddr: 0x35C60, symSize: 0x24 }
  - { offsetInCU: 0x167006, offset: 0x17A2D9, size: 0x8, addend: 0x0, symName: __ZNKSt3__110__function6__funcIZZN7httplib6detail21write_content_chunkedIZNS2_10ClientImpl27write_content_with_providerERNS2_6StreamERKNS2_7RequestERNS2_5ErrorEEUlvE_NS3_10compressorEEEbS7_RKNS_8functionIFbmmRNS2_8DataSinkEEEERKT_RT0_SC_ENKUlPKNS_8multimapINS_12basic_stringIcNS_11char_traitsIcEENS_9allocatorIcEEEESX_NS3_2ciENSV_INS_4pairIKSX_SX_EEEEEEE_clES15_EUlPKcmE_NSV_IS19_EEFbS18_mEE6targetERKSt9type_info, symObjAddr: 0x2D570, symBinAddr: 0x35C84, symSize: 0x74 }
  - { offsetInCU: 0x167091, offset: 0x17A364, size: 0x8, addend: 0x0, symName: __ZNKSt3__110__function6__funcIZZN7httplib6detail21write_content_chunkedIZNS2_10ClientImpl27write_content_with_providerERNS2_6StreamERKNS2_7RequestERNS2_5ErrorEEUlvE_NS3_10compressorEEEbS7_RKNS_8functionIFbmmRNS2_8DataSinkEEEERKT_RT0_SC_ENKUlPKNS_8multimapINS_12basic_stringIcNS_11char_traitsIcEENS_9allocatorIcEEEESX_NS3_2ciENSV_INS_4pairIKSX_SX_EEEEEEE_clES15_EUlPKcmE_NSV_IS19_EEFbS18_mEE11target_typeEv, symObjAddr: 0x2D5E4, symBinAddr: 0x35CF8, symSize: 0xC }
  - { offsetInCU: 0x1670BF, offset: 0x17A392, size: 0x8, addend: 0x0, symName: __ZNSt3__110__function6__funcIZN7httplib6detail21write_content_chunkedIZNS2_10ClientImpl27write_content_with_providerERNS2_6StreamERKNS2_7RequestERNS2_5ErrorEEUlvE_NS3_10compressorEEEbS7_RKNS_8functionIFbmmRNS2_8DataSinkEEEERKT_RT0_SC_EUlRKNS_8multimapINS_12basic_stringIcNS_11char_traitsIcEENS_9allocatorIcEEEESX_NS3_2ciENSV_INS_4pairIKSX_SX_EEEEEEE_NSV_IS16_EEFvS15_EED1Ev, symObjAddr: 0x2D788, symBinAddr: 0x35E9C, symSize: 0x4 }
  - { offsetInCU: 0x1670EB, offset: 0x17A3BE, size: 0x8, addend: 0x0, symName: __ZNSt3__110__function6__funcIZN7httplib6detail21write_content_chunkedIZNS2_10ClientImpl27write_content_with_providerERNS2_6StreamERKNS2_7RequestERNS2_5ErrorEEUlvE_NS3_10compressorEEEbS7_RKNS_8functionIFbmmRNS2_8DataSinkEEEERKT_RT0_SC_EUlRKNS_8multimapINS_12basic_stringIcNS_11char_traitsIcEENS_9allocatorIcEEEESX_NS3_2ciENSV_INS_4pairIKSX_SX_EEEEEEE_NSV_IS16_EEFvS15_EED0Ev, symObjAddr: 0x2D78C, symBinAddr: 0x35EA0, symSize: 0x4 }
  - { offsetInCU: 0x1672EF, offset: 0x17A5C2, size: 0x8, addend: 0x0, symName: __ZNKSt3__110__function6__funcIZN7httplib6detail21write_content_chunkedIZNS2_10ClientImpl27write_content_with_providerERNS2_6StreamERKNS2_7RequestERNS2_5ErrorEEUlvE_NS3_10compressorEEEbS7_RKNS_8functionIFbmmRNS2_8DataSinkEEEERKT_RT0_SC_EUlRKNS_8multimapINS_12basic_stringIcNS_11char_traitsIcEENS_9allocatorIcEEEESX_NS3_2ciENSV_INS_4pairIKSX_SX_EEEEEEE_NSV_IS16_EEFvS15_EE7__cloneEv, symObjAddr: 0x2D790, symBinAddr: 0x35EA4, symSize: 0x38 }
  - { offsetInCU: 0x1675FA, offset: 0x17A8CD, size: 0x8, addend: 0x0, symName: __ZNKSt3__110__function6__funcIZN7httplib6detail21write_content_chunkedIZNS2_10ClientImpl27write_content_with_providerERNS2_6StreamERKNS2_7RequestERNS2_5ErrorEEUlvE_NS3_10compressorEEEbS7_RKNS_8functionIFbmmRNS2_8DataSinkEEEERKT_RT0_SC_EUlRKNS_8multimapINS_12basic_stringIcNS_11char_traitsIcEENS_9allocatorIcEEEESX_NS3_2ciENSV_INS_4pairIKSX_SX_EEEEEEE_NSV_IS16_EEFvS15_EE7__cloneEPNS0_6__baseIS18_EE, symObjAddr: 0x2D7C8, symBinAddr: 0x35EDC, symSize: 0x18 }
  - { offsetInCU: 0x167632, offset: 0x17A905, size: 0x8, addend: 0x0, symName: __ZNKSt3__110__function6__funcIZN7httplib6detail21write_content_chunkedIZNS2_10ClientImpl27write_content_with_providerERNS2_6StreamERKNS2_7RequestERNS2_5ErrorEEUlvE_NS3_10compressorEEEbS7_RKNS_8functionIFbmmRNS2_8DataSinkEEEERKT_RT0_SC_EUlRKNS_8multimapINS_12basic_stringIcNS_11char_traitsIcEENS_9allocatorIcEEEESX_NS3_2ciENSV_INS_4pairIKSX_SX_EEEEEEE_NSV_IS16_EEFvS15_EE7__cloneEPNS0_6__baseIS18_EE, symObjAddr: 0x2D7C8, symBinAddr: 0x35EDC, symSize: 0x18 }
  - { offsetInCU: 0x167664, offset: 0x17A937, size: 0x8, addend: 0x0, symName: __ZNKSt3__110__function6__funcIZN7httplib6detail21write_content_chunkedIZNS2_10ClientImpl27write_content_with_providerERNS2_6StreamERKNS2_7RequestERNS2_5ErrorEEUlvE_NS3_10compressorEEEbS7_RKNS_8functionIFbmmRNS2_8DataSinkEEEERKT_RT0_SC_EUlRKNS_8multimapINS_12basic_stringIcNS_11char_traitsIcEENS_9allocatorIcEEEESX_NS3_2ciENSV_INS_4pairIKSX_SX_EEEEEEE_NSV_IS16_EEFvS15_EE7__cloneEPNS0_6__baseIS18_EE, symObjAddr: 0x2D7C8, symBinAddr: 0x35EDC, symSize: 0x18 }
  - { offsetInCU: 0x167704, offset: 0x17A9D7, size: 0x8, addend: 0x0, symName: __ZNSt3__110__function6__funcIZN7httplib6detail21write_content_chunkedIZNS2_10ClientImpl27write_content_with_providerERNS2_6StreamERKNS2_7RequestERNS2_5ErrorEEUlvE_NS3_10compressorEEEbS7_RKNS_8functionIFbmmRNS2_8DataSinkEEEERKT_RT0_SC_EUlRKNS_8multimapINS_12basic_stringIcNS_11char_traitsIcEENS_9allocatorIcEEEESX_NS3_2ciENSV_INS_4pairIKSX_SX_EEEEEEE_NSV_IS16_EEFvS15_EE7destroyEv, symObjAddr: 0x2D7E0, symBinAddr: 0x35EF4, symSize: 0x4 }
  - { offsetInCU: 0x167757, offset: 0x17AA2A, size: 0x8, addend: 0x0, symName: __ZNSt3__110__function6__funcIZN7httplib6detail21write_content_chunkedIZNS2_10ClientImpl27write_content_with_providerERNS2_6StreamERKNS2_7RequestERNS2_5ErrorEEUlvE_NS3_10compressorEEEbS7_RKNS_8functionIFbmmRNS2_8DataSinkEEEERKT_RT0_SC_EUlRKNS_8multimapINS_12basic_stringIcNS_11char_traitsIcEENS_9allocatorIcEEEESX_NS3_2ciENSV_INS_4pairIKSX_SX_EEEEEEE_NSV_IS16_EEFvS15_EE18destroy_deallocateEv, symObjAddr: 0x2D7E4, symBinAddr: 0x35EF8, symSize: 0x4 }
  - { offsetInCU: 0x16778C, offset: 0x17AA5F, size: 0x8, addend: 0x0, symName: __ZNSt3__110__function6__funcIZN7httplib6detail21write_content_chunkedIZNS2_10ClientImpl27write_content_with_providerERNS2_6StreamERKNS2_7RequestERNS2_5ErrorEEUlvE_NS3_10compressorEEEbS7_RKNS_8functionIFbmmRNS2_8DataSinkEEEERKT_RT0_SC_EUlRKNS_8multimapINS_12basic_stringIcNS_11char_traitsIcEENS_9allocatorIcEEEESX_NS3_2ciENSV_INS_4pairIKSX_SX_EEEEEEE_NSV_IS16_EEFvS15_EE18destroy_deallocateEv, symObjAddr: 0x2D7E4, symBinAddr: 0x35EF8, symSize: 0x4 }
  - { offsetInCU: 0x1677B1, offset: 0x17AA84, size: 0x8, addend: 0x0, symName: __ZNSt3__110__function6__funcIZN7httplib6detail21write_content_chunkedIZNS2_10ClientImpl27write_content_with_providerERNS2_6StreamERKNS2_7RequestERNS2_5ErrorEEUlvE_NS3_10compressorEEEbS7_RKNS_8functionIFbmmRNS2_8DataSinkEEEERKT_RT0_SC_EUlRKNS_8multimapINS_12basic_stringIcNS_11char_traitsIcEENS_9allocatorIcEEEESX_NS3_2ciENSV_INS_4pairIKSX_SX_EEEEEEE_NSV_IS16_EEFvS15_EE18destroy_deallocateEv, symObjAddr: 0x2D7E4, symBinAddr: 0x35EF8, symSize: 0x4 }
  - { offsetInCU: 0x1677E0, offset: 0x17AAB3, size: 0x8, addend: 0x0, symName: __ZNSt3__110__function6__funcIZN7httplib6detail21write_content_chunkedIZNS2_10ClientImpl27write_content_with_providerERNS2_6StreamERKNS2_7RequestERNS2_5ErrorEEUlvE_NS3_10compressorEEEbS7_RKNS_8functionIFbmmRNS2_8DataSinkEEEERKT_RT0_SC_EUlRKNS_8multimapINS_12basic_stringIcNS_11char_traitsIcEENS_9allocatorIcEEEESX_NS3_2ciENSV_INS_4pairIKSX_SX_EEEEEEE_NSV_IS16_EEFvS15_EE18destroy_deallocateEv, symObjAddr: 0x2D7E4, symBinAddr: 0x35EF8, symSize: 0x4 }
  - { offsetInCU: 0x167809, offset: 0x17AADC, size: 0x8, addend: 0x0, symName: __ZNSt3__110__function6__funcIZN7httplib6detail21write_content_chunkedIZNS2_10ClientImpl27write_content_with_providerERNS2_6StreamERKNS2_7RequestERNS2_5ErrorEEUlvE_NS3_10compressorEEEbS7_RKNS_8functionIFbmmRNS2_8DataSinkEEEERKT_RT0_SC_EUlRKNS_8multimapINS_12basic_stringIcNS_11char_traitsIcEENS_9allocatorIcEEEESX_NS3_2ciENSV_INS_4pairIKSX_SX_EEEEEEE_NSV_IS16_EEFvS15_EE18destroy_deallocateEv, symObjAddr: 0x2D7E4, symBinAddr: 0x35EF8, symSize: 0x4 }
  - { offsetInCU: 0x1678B1, offset: 0x17AB84, size: 0x8, addend: 0x0, symName: __ZNSt3__110__function6__funcIZN7httplib6detail21write_content_chunkedIZNS2_10ClientImpl27write_content_with_providerERNS2_6StreamERKNS2_7RequestERNS2_5ErrorEEUlvE_NS3_10compressorEEEbS7_RKNS_8functionIFbmmRNS2_8DataSinkEEEERKT_RT0_SC_EUlRKNS_8multimapINS_12basic_stringIcNS_11char_traitsIcEENS_9allocatorIcEEEESX_NS3_2ciENSV_INS_4pairIKSX_SX_EEEEEEE_NSV_IS16_EEFvS15_EEclES15_, symObjAddr: 0x2D7E8, symBinAddr: 0x35EFC, symSize: 0x8 }
  - { offsetInCU: 0x1678EB, offset: 0x17ABBE, size: 0x8, addend: 0x0, symName: __ZNSt3__110__function6__funcIZN7httplib6detail21write_content_chunkedIZNS2_10ClientImpl27write_content_with_providerERNS2_6StreamERKNS2_7RequestERNS2_5ErrorEEUlvE_NS3_10compressorEEEbS7_RKNS_8functionIFbmmRNS2_8DataSinkEEEERKT_RT0_SC_EUlRKNS_8multimapINS_12basic_stringIcNS_11char_traitsIcEENS_9allocatorIcEEEESX_NS3_2ciENSV_INS_4pairIKSX_SX_EEEEEEE_NSV_IS16_EEFvS15_EEclES15_, symObjAddr: 0x2D7E8, symBinAddr: 0x35EFC, symSize: 0x8 }
  - { offsetInCU: 0x167913, offset: 0x17ABE6, size: 0x8, addend: 0x0, symName: __ZNSt3__110__function6__funcIZN7httplib6detail21write_content_chunkedIZNS2_10ClientImpl27write_content_with_providerERNS2_6StreamERKNS2_7RequestERNS2_5ErrorEEUlvE_NS3_10compressorEEEbS7_RKNS_8functionIFbmmRNS2_8DataSinkEEEERKT_RT0_SC_EUlRKNS_8multimapINS_12basic_stringIcNS_11char_traitsIcEENS_9allocatorIcEEEESX_NS3_2ciENSV_INS_4pairIKSX_SX_EEEEEEE_NSV_IS16_EEFvS15_EEclES15_, symObjAddr: 0x2D7E8, symBinAddr: 0x35EFC, symSize: 0x8 }
  - { offsetInCU: 0x16793A, offset: 0x17AC0D, size: 0x8, addend: 0x0, symName: __ZNSt3__110__function6__funcIZN7httplib6detail21write_content_chunkedIZNS2_10ClientImpl27write_content_with_providerERNS2_6StreamERKNS2_7RequestERNS2_5ErrorEEUlvE_NS3_10compressorEEEbS7_RKNS_8functionIFbmmRNS2_8DataSinkEEEERKT_RT0_SC_EUlRKNS_8multimapINS_12basic_stringIcNS_11char_traitsIcEENS_9allocatorIcEEEESX_NS3_2ciENSV_INS_4pairIKSX_SX_EEEEEEE_NSV_IS16_EEFvS15_EEclES15_, symObjAddr: 0x2D7E8, symBinAddr: 0x35EFC, symSize: 0x8 }
  - { offsetInCU: 0x167962, offset: 0x17AC35, size: 0x8, addend: 0x0, symName: __ZNSt3__110__function6__funcIZN7httplib6detail21write_content_chunkedIZNS2_10ClientImpl27write_content_with_providerERNS2_6StreamERKNS2_7RequestERNS2_5ErrorEEUlvE_NS3_10compressorEEEbS7_RKNS_8functionIFbmmRNS2_8DataSinkEEEERKT_RT0_SC_EUlRKNS_8multimapINS_12basic_stringIcNS_11char_traitsIcEENS_9allocatorIcEEEESX_NS3_2ciENSV_INS_4pairIKSX_SX_EEEEEEE_NSV_IS16_EEFvS15_EEclES15_, symObjAddr: 0x2D7E8, symBinAddr: 0x35EFC, symSize: 0x8 }
  - { offsetInCU: 0x1679A2, offset: 0x17AC75, size: 0x8, addend: 0x0, symName: __ZNKSt3__110__function6__funcIZN7httplib6detail21write_content_chunkedIZNS2_10ClientImpl27write_content_with_providerERNS2_6StreamERKNS2_7RequestERNS2_5ErrorEEUlvE_NS3_10compressorEEEbS7_RKNS_8functionIFbmmRNS2_8DataSinkEEEERKT_RT0_SC_EUlRKNS_8multimapINS_12basic_stringIcNS_11char_traitsIcEENS_9allocatorIcEEEESX_NS3_2ciENSV_INS_4pairIKSX_SX_EEEEEEE_NSV_IS16_EEFvS15_EE6targetERKSt9type_info, symObjAddr: 0x2D7F0, symBinAddr: 0x35F04, symSize: 0x74 }
  - { offsetInCU: 0x167A2D, offset: 0x17AD00, size: 0x8, addend: 0x0, symName: __ZNKSt3__110__function6__funcIZN7httplib6detail21write_content_chunkedIZNS2_10ClientImpl27write_content_with_providerERNS2_6StreamERKNS2_7RequestERNS2_5ErrorEEUlvE_NS3_10compressorEEEbS7_RKNS_8functionIFbmmRNS2_8DataSinkEEEERKT_RT0_SC_EUlRKNS_8multimapINS_12basic_stringIcNS_11char_traitsIcEENS_9allocatorIcEEEESX_NS3_2ciENSV_INS_4pairIKSX_SX_EEEEEEE_NSV_IS16_EEFvS15_EE11target_typeEv, symObjAddr: 0x2D864, symBinAddr: 0x35F78, symSize: 0xC }
  - { offsetInCU: 0x167A5B, offset: 0x17AD2E, size: 0x8, addend: 0x0, symName: __ZNSt3__110__function6__funcIZN7httplib6detail13write_contentIZNS2_10ClientImpl27write_content_with_providerERNS2_6StreamERKNS2_7RequestERNS2_5ErrorEEUlvE_EEbS7_RKNS_8functionIFbmmRNS2_8DataSinkEEEEmmT_SC_EUlPKcmE_NS_9allocatorISO_EEFbSN_mEED1Ev, symObjAddr: 0x2DA08, symBinAddr: 0x3611C, symSize: 0x4 }
  - { offsetInCU: 0x167A87, offset: 0x17AD5A, size: 0x8, addend: 0x0, symName: __ZNSt3__110__function6__funcIZN7httplib6detail13write_contentIZNS2_10ClientImpl27write_content_with_providerERNS2_6StreamERKNS2_7RequestERNS2_5ErrorEEUlvE_EEbS7_RKNS_8functionIFbmmRNS2_8DataSinkEEEEmmT_SC_EUlPKcmE_NS_9allocatorISO_EEFbSN_mEED0Ev, symObjAddr: 0x2DA0C, symBinAddr: 0x36120, symSize: 0x4 }
  - { offsetInCU: 0x167C65, offset: 0x17AF38, size: 0x8, addend: 0x0, symName: __ZNKSt3__110__function6__funcIZN7httplib6detail13write_contentIZNS2_10ClientImpl27write_content_with_providerERNS2_6StreamERKNS2_7RequestERNS2_5ErrorEEUlvE_EEbS7_RKNS_8functionIFbmmRNS2_8DataSinkEEEEmmT_SC_EUlPKcmE_NS_9allocatorISO_EEFbSN_mEE7__cloneEv, symObjAddr: 0x2DA10, symBinAddr: 0x36124, symSize: 0x44 }
  - { offsetInCU: 0x167FA2, offset: 0x17B275, size: 0x8, addend: 0x0, symName: __ZNKSt3__110__function6__funcIZN7httplib6detail13write_contentIZNS2_10ClientImpl27write_content_with_providerERNS2_6StreamERKNS2_7RequestERNS2_5ErrorEEUlvE_EEbS7_RKNS_8functionIFbmmRNS2_8DataSinkEEEEmmT_SC_EUlPKcmE_NS_9allocatorISO_EEFbSN_mEE7__cloneEPNS0_6__baseISR_EE, symObjAddr: 0x2DA54, symBinAddr: 0x36168, symSize: 0x24 }
  - { offsetInCU: 0x167FDA, offset: 0x17B2AD, size: 0x8, addend: 0x0, symName: __ZNKSt3__110__function6__funcIZN7httplib6detail13write_contentIZNS2_10ClientImpl27write_content_with_providerERNS2_6StreamERKNS2_7RequestERNS2_5ErrorEEUlvE_EEbS7_RKNS_8functionIFbmmRNS2_8DataSinkEEEEmmT_SC_EUlPKcmE_NS_9allocatorISO_EEFbSN_mEE7__cloneEPNS0_6__baseISR_EE, symObjAddr: 0x2DA54, symBinAddr: 0x36168, symSize: 0x24 }
  - { offsetInCU: 0x16800C, offset: 0x17B2DF, size: 0x8, addend: 0x0, symName: __ZNKSt3__110__function6__funcIZN7httplib6detail13write_contentIZNS2_10ClientImpl27write_content_with_providerERNS2_6StreamERKNS2_7RequestERNS2_5ErrorEEUlvE_EEbS7_RKNS_8functionIFbmmRNS2_8DataSinkEEEEmmT_SC_EUlPKcmE_NS_9allocatorISO_EEFbSN_mEE7__cloneEPNS0_6__baseISR_EE, symObjAddr: 0x2DA54, symBinAddr: 0x36168, symSize: 0x24 }
  - { offsetInCU: 0x168139, offset: 0x17B40C, size: 0x8, addend: 0x0, symName: __ZNSt3__110__function6__funcIZN7httplib6detail13write_contentIZNS2_10ClientImpl27write_content_with_providerERNS2_6StreamERKNS2_7RequestERNS2_5ErrorEEUlvE_EEbS7_RKNS_8functionIFbmmRNS2_8DataSinkEEEEmmT_SC_EUlPKcmE_NS_9allocatorISO_EEFbSN_mEE7destroyEv, symObjAddr: 0x2DA78, symBinAddr: 0x3618C, symSize: 0x4 }
  - { offsetInCU: 0x16818C, offset: 0x17B45F, size: 0x8, addend: 0x0, symName: __ZNSt3__110__function6__funcIZN7httplib6detail13write_contentIZNS2_10ClientImpl27write_content_with_providerERNS2_6StreamERKNS2_7RequestERNS2_5ErrorEEUlvE_EEbS7_RKNS_8functionIFbmmRNS2_8DataSinkEEEEmmT_SC_EUlPKcmE_NS_9allocatorISO_EEFbSN_mEE18destroy_deallocateEv, symObjAddr: 0x2DA7C, symBinAddr: 0x36190, symSize: 0x4 }
  - { offsetInCU: 0x1681C1, offset: 0x17B494, size: 0x8, addend: 0x0, symName: __ZNSt3__110__function6__funcIZN7httplib6detail13write_contentIZNS2_10ClientImpl27write_content_with_providerERNS2_6StreamERKNS2_7RequestERNS2_5ErrorEEUlvE_EEbS7_RKNS_8functionIFbmmRNS2_8DataSinkEEEEmmT_SC_EUlPKcmE_NS_9allocatorISO_EEFbSN_mEE18destroy_deallocateEv, symObjAddr: 0x2DA7C, symBinAddr: 0x36190, symSize: 0x4 }
  - { offsetInCU: 0x1681E6, offset: 0x17B4B9, size: 0x8, addend: 0x0, symName: __ZNSt3__110__function6__funcIZN7httplib6detail13write_contentIZNS2_10ClientImpl27write_content_with_providerERNS2_6StreamERKNS2_7RequestERNS2_5ErrorEEUlvE_EEbS7_RKNS_8functionIFbmmRNS2_8DataSinkEEEEmmT_SC_EUlPKcmE_NS_9allocatorISO_EEFbSN_mEE18destroy_deallocateEv, symObjAddr: 0x2DA7C, symBinAddr: 0x36190, symSize: 0x4 }
  - { offsetInCU: 0x168215, offset: 0x17B4E8, size: 0x8, addend: 0x0, symName: __ZNSt3__110__function6__funcIZN7httplib6detail13write_contentIZNS2_10ClientImpl27write_content_with_providerERNS2_6StreamERKNS2_7RequestERNS2_5ErrorEEUlvE_EEbS7_RKNS_8functionIFbmmRNS2_8DataSinkEEEEmmT_SC_EUlPKcmE_NS_9allocatorISO_EEFbSN_mEE18destroy_deallocateEv, symObjAddr: 0x2DA7C, symBinAddr: 0x36190, symSize: 0x4 }
  - { offsetInCU: 0x16823E, offset: 0x17B511, size: 0x8, addend: 0x0, symName: __ZNSt3__110__function6__funcIZN7httplib6detail13write_contentIZNS2_10ClientImpl27write_content_with_providerERNS2_6StreamERKNS2_7RequestERNS2_5ErrorEEUlvE_EEbS7_RKNS_8functionIFbmmRNS2_8DataSinkEEEEmmT_SC_EUlPKcmE_NS_9allocatorISO_EEFbSN_mEE18destroy_deallocateEv, symObjAddr: 0x2DA7C, symBinAddr: 0x36190, symSize: 0x4 }
  - { offsetInCU: 0x168309, offset: 0x17B5DC, size: 0x8, addend: 0x0, symName: __ZNSt3__110__function6__funcIZN7httplib6detail13write_contentIZNS2_10ClientImpl27write_content_with_providerERNS2_6StreamERKNS2_7RequestERNS2_5ErrorEEUlvE_EEbS7_RKNS_8functionIFbmmRNS2_8DataSinkEEEEmmT_SC_EUlPKcmE_NS_9allocatorISO_EEFbSN_mEEclEOSN_Om, symObjAddr: 0x2DA80, symBinAddr: 0x36194, symSize: 0xD8 }
  - { offsetInCU: 0x168476, offset: 0x17B749, size: 0x8, addend: 0x0, symName: __ZNKSt3__110__function6__funcIZN7httplib6detail13write_contentIZNS2_10ClientImpl27write_content_with_providerERNS2_6StreamERKNS2_7RequestERNS2_5ErrorEEUlvE_EEbS7_RKNS_8functionIFbmmRNS2_8DataSinkEEEEmmT_SC_EUlPKcmE_NS_9allocatorISO_EEFbSN_mEE6targetERKSt9type_info, symObjAddr: 0x2DB58, symBinAddr: 0x3626C, symSize: 0x74 }
  - { offsetInCU: 0x168501, offset: 0x17B7D4, size: 0x8, addend: 0x0, symName: __ZNKSt3__110__function6__funcIZN7httplib6detail13write_contentIZNS2_10ClientImpl27write_content_with_providerERNS2_6StreamERKNS2_7RequestERNS2_5ErrorEEUlvE_EEbS7_RKNS_8functionIFbmmRNS2_8DataSinkEEEEmmT_SC_EUlPKcmE_NS_9allocatorISO_EEFbSN_mEE11target_typeEv, symObjAddr: 0x2DBCC, symBinAddr: 0x362E0, symSize: 0xC }
  - { offsetInCU: 0x168594, offset: 0x17B867, size: 0x8, addend: 0x0, symName: __ZNSt3__18multimapINS_12basic_stringIcNS_11char_traitsIcEENS_9allocatorIcEEEES6_N7httplib6detail2ciENS4_INS_4pairIKS6_S6_EEEEE7emplaceB8ue170006IJS6_S6_EEENS_14__map_iteratorINS_15__tree_iteratorINS_12__value_typeIS6_S6_EEPNS_11__tree_nodeISJ_PvEElEEEEDpOT_, symObjAddr: 0x2E854, symBinAddr: 0x36F68, symSize: 0x120 }
  - { offsetInCU: 0x168EDC, offset: 0x17C1AF, size: 0x8, addend: 0x0, symName: __ZNSt3__110__function6__funcIZN7httplib10ClientImpl15process_requestERNS2_6StreamERNS2_7RequestERNS2_8ResponseEbRNS2_5ErrorEEUlPKcmyyE_NS_9allocatorISE_EEFbSD_myyEED1Ev, symObjAddr: 0x2E974, symBinAddr: 0x37088, symSize: 0x4 }
  - { offsetInCU: 0x168F08, offset: 0x17C1DB, size: 0x8, addend: 0x0, symName: __ZNSt3__110__function6__funcIZN7httplib10ClientImpl15process_requestERNS2_6StreamERNS2_7RequestERNS2_8ResponseEbRNS2_5ErrorEEUlPKcmyyE_NS_9allocatorISE_EEFbSD_myyEED0Ev, symObjAddr: 0x2E978, symBinAddr: 0x3708C, symSize: 0x4 }
  - { offsetInCU: 0x1690E6, offset: 0x17C3B9, size: 0x8, addend: 0x0, symName: __ZNKSt3__110__function6__funcIZN7httplib10ClientImpl15process_requestERNS2_6StreamERNS2_7RequestERNS2_8ResponseEbRNS2_5ErrorEEUlPKcmyyE_NS_9allocatorISE_EEFbSD_myyEE7__cloneEv, symObjAddr: 0x2E97C, symBinAddr: 0x37090, symSize: 0x44 }
  - { offsetInCU: 0x169423, offset: 0x17C6F6, size: 0x8, addend: 0x0, symName: __ZNKSt3__110__function6__funcIZN7httplib10ClientImpl15process_requestERNS2_6StreamERNS2_7RequestERNS2_8ResponseEbRNS2_5ErrorEEUlPKcmyyE_NS_9allocatorISE_EEFbSD_myyEE7__cloneEPNS0_6__baseISH_EE, symObjAddr: 0x2E9C0, symBinAddr: 0x370D4, symSize: 0x24 }
  - { offsetInCU: 0x16945B, offset: 0x17C72E, size: 0x8, addend: 0x0, symName: __ZNKSt3__110__function6__funcIZN7httplib10ClientImpl15process_requestERNS2_6StreamERNS2_7RequestERNS2_8ResponseEbRNS2_5ErrorEEUlPKcmyyE_NS_9allocatorISE_EEFbSD_myyEE7__cloneEPNS0_6__baseISH_EE, symObjAddr: 0x2E9C0, symBinAddr: 0x370D4, symSize: 0x24 }
  - { offsetInCU: 0x16948D, offset: 0x17C760, size: 0x8, addend: 0x0, symName: __ZNKSt3__110__function6__funcIZN7httplib10ClientImpl15process_requestERNS2_6StreamERNS2_7RequestERNS2_8ResponseEbRNS2_5ErrorEEUlPKcmyyE_NS_9allocatorISE_EEFbSD_myyEE7__cloneEPNS0_6__baseISH_EE, symObjAddr: 0x2E9C0, symBinAddr: 0x370D4, symSize: 0x24 }
  - { offsetInCU: 0x1695BA, offset: 0x17C88D, size: 0x8, addend: 0x0, symName: __ZNSt3__110__function6__funcIZN7httplib10ClientImpl15process_requestERNS2_6StreamERNS2_7RequestERNS2_8ResponseEbRNS2_5ErrorEEUlPKcmyyE_NS_9allocatorISE_EEFbSD_myyEE7destroyEv, symObjAddr: 0x2E9E4, symBinAddr: 0x370F8, symSize: 0x4 }
  - { offsetInCU: 0x16960D, offset: 0x17C8E0, size: 0x8, addend: 0x0, symName: __ZNSt3__110__function6__funcIZN7httplib10ClientImpl15process_requestERNS2_6StreamERNS2_7RequestERNS2_8ResponseEbRNS2_5ErrorEEUlPKcmyyE_NS_9allocatorISE_EEFbSD_myyEE18destroy_deallocateEv, symObjAddr: 0x2E9E8, symBinAddr: 0x370FC, symSize: 0x4 }
  - { offsetInCU: 0x169642, offset: 0x17C915, size: 0x8, addend: 0x0, symName: __ZNSt3__110__function6__funcIZN7httplib10ClientImpl15process_requestERNS2_6StreamERNS2_7RequestERNS2_8ResponseEbRNS2_5ErrorEEUlPKcmyyE_NS_9allocatorISE_EEFbSD_myyEE18destroy_deallocateEv, symObjAddr: 0x2E9E8, symBinAddr: 0x370FC, symSize: 0x4 }
  - { offsetInCU: 0x169667, offset: 0x17C93A, size: 0x8, addend: 0x0, symName: __ZNSt3__110__function6__funcIZN7httplib10ClientImpl15process_requestERNS2_6StreamERNS2_7RequestERNS2_8ResponseEbRNS2_5ErrorEEUlPKcmyyE_NS_9allocatorISE_EEFbSD_myyEE18destroy_deallocateEv, symObjAddr: 0x2E9E8, symBinAddr: 0x370FC, symSize: 0x4 }
  - { offsetInCU: 0x169696, offset: 0x17C969, size: 0x8, addend: 0x0, symName: __ZNSt3__110__function6__funcIZN7httplib10ClientImpl15process_requestERNS2_6StreamERNS2_7RequestERNS2_8ResponseEbRNS2_5ErrorEEUlPKcmyyE_NS_9allocatorISE_EEFbSD_myyEE18destroy_deallocateEv, symObjAddr: 0x2E9E8, symBinAddr: 0x370FC, symSize: 0x4 }
  - { offsetInCU: 0x1696BF, offset: 0x17C992, size: 0x8, addend: 0x0, symName: __ZNSt3__110__function6__funcIZN7httplib10ClientImpl15process_requestERNS2_6StreamERNS2_7RequestERNS2_8ResponseEbRNS2_5ErrorEEUlPKcmyyE_NS_9allocatorISE_EEFbSD_myyEE18destroy_deallocateEv, symObjAddr: 0x2E9E8, symBinAddr: 0x370FC, symSize: 0x4 }
  - { offsetInCU: 0x169879, offset: 0x17CB4C, size: 0x8, addend: 0x0, symName: __ZNSt3__110__function6__funcIZN7httplib10ClientImpl15process_requestERNS2_6StreamERNS2_7RequestERNS2_8ResponseEbRNS2_5ErrorEEUlPKcmyyE_NS_9allocatorISE_EEFbSD_myyEEclEOSD_OmOySL_, symObjAddr: 0x2E9EC, symBinAddr: 0x37100, symSize: 0xB0 }
  - { offsetInCU: 0x169A20, offset: 0x17CCF3, size: 0x8, addend: 0x0, symName: __ZNKSt3__110__function6__funcIZN7httplib10ClientImpl15process_requestERNS2_6StreamERNS2_7RequestERNS2_8ResponseEbRNS2_5ErrorEEUlPKcmyyE_NS_9allocatorISE_EEFbSD_myyEE6targetERKSt9type_info, symObjAddr: 0x2EA9C, symBinAddr: 0x371B0, symSize: 0x74 }
  - { offsetInCU: 0x169A2C, offset: 0x17CCFF, size: 0x8, addend: 0x0, symName: __ZNKSt3__110__function6__funcIZN7httplib10ClientImpl15process_requestERNS2_6StreamERNS2_7RequestERNS2_8ResponseEbRNS2_5ErrorEEUlPKcmyyE_NS_9allocatorISE_EEFbSD_myyEE6targetERKSt9type_info, symObjAddr: 0x2EA9C, symBinAddr: 0x371B0, symSize: 0x74 }
  - { offsetInCU: 0x169AB7, offset: 0x17CD8A, size: 0x8, addend: 0x0, symName: __ZNKSt3__110__function6__funcIZN7httplib10ClientImpl15process_requestERNS2_6StreamERNS2_7RequestERNS2_8ResponseEbRNS2_5ErrorEEUlPKcmyyE_NS_9allocatorISE_EEFbSD_myyEE11target_typeEv, symObjAddr: 0x2EB10, symBinAddr: 0x37224, symSize: 0xC }
  - { offsetInCU: 0x169AE0, offset: 0x17CDB3, size: 0x8, addend: 0x0, symName: __ZNSt3__110__function6__funcIZN7httplib10ClientImpl15process_requestERNS2_6StreamERNS2_7RequestERNS2_8ResponseEbRNS2_5ErrorEEUlPKcmyyE0_NS_9allocatorISE_EEFbSD_myyEED1Ev, symObjAddr: 0x2EB1C, symBinAddr: 0x37230, symSize: 0x4 }
  - { offsetInCU: 0x169B0C, offset: 0x17CDDF, size: 0x8, addend: 0x0, symName: __ZNSt3__110__function6__funcIZN7httplib10ClientImpl15process_requestERNS2_6StreamERNS2_7RequestERNS2_8ResponseEbRNS2_5ErrorEEUlPKcmyyE0_NS_9allocatorISE_EEFbSD_myyEED0Ev, symObjAddr: 0x2EB20, symBinAddr: 0x37234, symSize: 0x4 }
  - { offsetInCU: 0x169D10, offset: 0x17CFE3, size: 0x8, addend: 0x0, symName: __ZNKSt3__110__function6__funcIZN7httplib10ClientImpl15process_requestERNS2_6StreamERNS2_7RequestERNS2_8ResponseEbRNS2_5ErrorEEUlPKcmyyE0_NS_9allocatorISE_EEFbSD_myyEE7__cloneEv, symObjAddr: 0x2EB24, symBinAddr: 0x37238, symSize: 0x38 }
  - { offsetInCU: 0x16A01B, offset: 0x17D2EE, size: 0x8, addend: 0x0, symName: __ZNKSt3__110__function6__funcIZN7httplib10ClientImpl15process_requestERNS2_6StreamERNS2_7RequestERNS2_8ResponseEbRNS2_5ErrorEEUlPKcmyyE0_NS_9allocatorISE_EEFbSD_myyEE7__cloneEPNS0_6__baseISH_EE, symObjAddr: 0x2EB5C, symBinAddr: 0x37270, symSize: 0x18 }
  - { offsetInCU: 0x16A053, offset: 0x17D326, size: 0x8, addend: 0x0, symName: __ZNKSt3__110__function6__funcIZN7httplib10ClientImpl15process_requestERNS2_6StreamERNS2_7RequestERNS2_8ResponseEbRNS2_5ErrorEEUlPKcmyyE0_NS_9allocatorISE_EEFbSD_myyEE7__cloneEPNS0_6__baseISH_EE, symObjAddr: 0x2EB5C, symBinAddr: 0x37270, symSize: 0x18 }
  - { offsetInCU: 0x16A085, offset: 0x17D358, size: 0x8, addend: 0x0, symName: __ZNKSt3__110__function6__funcIZN7httplib10ClientImpl15process_requestERNS2_6StreamERNS2_7RequestERNS2_8ResponseEbRNS2_5ErrorEEUlPKcmyyE0_NS_9allocatorISE_EEFbSD_myyEE7__cloneEPNS0_6__baseISH_EE, symObjAddr: 0x2EB5C, symBinAddr: 0x37270, symSize: 0x18 }
  - { offsetInCU: 0x16A125, offset: 0x17D3F8, size: 0x8, addend: 0x0, symName: __ZNSt3__110__function6__funcIZN7httplib10ClientImpl15process_requestERNS2_6StreamERNS2_7RequestERNS2_8ResponseEbRNS2_5ErrorEEUlPKcmyyE0_NS_9allocatorISE_EEFbSD_myyEE7destroyEv, symObjAddr: 0x2EB74, symBinAddr: 0x37288, symSize: 0x4 }
  - { offsetInCU: 0x16A178, offset: 0x17D44B, size: 0x8, addend: 0x0, symName: __ZNSt3__110__function6__funcIZN7httplib10ClientImpl15process_requestERNS2_6StreamERNS2_7RequestERNS2_8ResponseEbRNS2_5ErrorEEUlPKcmyyE0_NS_9allocatorISE_EEFbSD_myyEE18destroy_deallocateEv, symObjAddr: 0x2EB78, symBinAddr: 0x3728C, symSize: 0x4 }
  - { offsetInCU: 0x16A1AD, offset: 0x17D480, size: 0x8, addend: 0x0, symName: __ZNSt3__110__function6__funcIZN7httplib10ClientImpl15process_requestERNS2_6StreamERNS2_7RequestERNS2_8ResponseEbRNS2_5ErrorEEUlPKcmyyE0_NS_9allocatorISE_EEFbSD_myyEE18destroy_deallocateEv, symObjAddr: 0x2EB78, symBinAddr: 0x3728C, symSize: 0x4 }
  - { offsetInCU: 0x16A1D2, offset: 0x17D4A5, size: 0x8, addend: 0x0, symName: __ZNSt3__110__function6__funcIZN7httplib10ClientImpl15process_requestERNS2_6StreamERNS2_7RequestERNS2_8ResponseEbRNS2_5ErrorEEUlPKcmyyE0_NS_9allocatorISE_EEFbSD_myyEE18destroy_deallocateEv, symObjAddr: 0x2EB78, symBinAddr: 0x3728C, symSize: 0x4 }
  - { offsetInCU: 0x16A201, offset: 0x17D4D4, size: 0x8, addend: 0x0, symName: __ZNSt3__110__function6__funcIZN7httplib10ClientImpl15process_requestERNS2_6StreamERNS2_7RequestERNS2_8ResponseEbRNS2_5ErrorEEUlPKcmyyE0_NS_9allocatorISE_EEFbSD_myyEE18destroy_deallocateEv, symObjAddr: 0x2EB78, symBinAddr: 0x3728C, symSize: 0x4 }
  - { offsetInCU: 0x16A22A, offset: 0x17D4FD, size: 0x8, addend: 0x0, symName: __ZNSt3__110__function6__funcIZN7httplib10ClientImpl15process_requestERNS2_6StreamERNS2_7RequestERNS2_8ResponseEbRNS2_5ErrorEEUlPKcmyyE0_NS_9allocatorISE_EEFbSD_myyEE18destroy_deallocateEv, symObjAddr: 0x2EB78, symBinAddr: 0x3728C, symSize: 0x4 }
  - { offsetInCU: 0x16A344, offset: 0x17D617, size: 0x8, addend: 0x0, symName: __ZNSt3__110__function6__funcIZN7httplib10ClientImpl15process_requestERNS2_6StreamERNS2_7RequestERNS2_8ResponseEbRNS2_5ErrorEEUlPKcmyyE0_NS_9allocatorISE_EEFbSD_myyEEclEOSD_OmOySL_, symObjAddr: 0x2EB7C, symBinAddr: 0x37290, symSize: 0x74 }
  - { offsetInCU: 0x16A4B1, offset: 0x17D784, size: 0x8, addend: 0x0, symName: __ZNKSt3__110__function6__funcIZN7httplib10ClientImpl15process_requestERNS2_6StreamERNS2_7RequestERNS2_8ResponseEbRNS2_5ErrorEEUlPKcmyyE0_NS_9allocatorISE_EEFbSD_myyEE6targetERKSt9type_info, symObjAddr: 0x2EBF0, symBinAddr: 0x37304, symSize: 0x74 }
  - { offsetInCU: 0x16A53C, offset: 0x17D80F, size: 0x8, addend: 0x0, symName: __ZNKSt3__110__function6__funcIZN7httplib10ClientImpl15process_requestERNS2_6StreamERNS2_7RequestERNS2_8ResponseEbRNS2_5ErrorEEUlPKcmyyE0_NS_9allocatorISE_EEFbSD_myyEE11target_typeEv, symObjAddr: 0x2EC64, symBinAddr: 0x37378, symSize: 0xC }
  - { offsetInCU: 0x16A775, offset: 0x17DA48, size: 0x8, addend: 0x0, symName: __ZZN7httplib6detail12read_contentINS_8ResponseEEEbRNS_6StreamERT_mRiNSt3__18functionIFbyyEEENS9_IFbPKcmyyEEEbENKUlRKSF_E_clESH_, symObjAddr: 0x2EFD4, symBinAddr: 0x376E8, symSize: 0x6DC }
  - { offsetInCU: 0x16C30A, offset: 0x17F5DD, size: 0x8, addend: 0x0, symName: __ZNSt3__110__function6__funcIZN7httplib6detail24prepare_content_receiverINS2_8ResponseEZNS3_12read_contentIS5_EEbRNS2_6StreamERT_mRiNS_8functionIFbyyEEENSC_IFbPKcmyyEEEbEUlRKSI_E_EEbSA_SB_SI_bT0_EUlSG_myyE0_NS_9allocatorISN_EESH_ED1Ev, symObjAddr: 0x303DC, symBinAddr: 0x38AF0, symSize: 0x4 }
  - { offsetInCU: 0x16C336, offset: 0x17F609, size: 0x8, addend: 0x0, symName: __ZNSt3__110__function6__funcIZN7httplib6detail24prepare_content_receiverINS2_8ResponseEZNS3_12read_contentIS5_EEbRNS2_6StreamERT_mRiNS_8functionIFbyyEEENSC_IFbPKcmyyEEEbEUlRKSI_E_EEbSA_SB_SI_bT0_EUlSG_myyE0_NS_9allocatorISN_EESH_ED0Ev, symObjAddr: 0x303E0, symBinAddr: 0x38AF4, symSize: 0x4 }
  - { offsetInCU: 0x16C53A, offset: 0x17F80D, size: 0x8, addend: 0x0, symName: __ZNKSt3__110__function6__funcIZN7httplib6detail24prepare_content_receiverINS2_8ResponseEZNS3_12read_contentIS5_EEbRNS2_6StreamERT_mRiNS_8functionIFbyyEEENSC_IFbPKcmyyEEEbEUlRKSI_E_EEbSA_SB_SI_bT0_EUlSG_myyE0_NS_9allocatorISN_EESH_E7__cloneEv, symObjAddr: 0x303E4, symBinAddr: 0x38AF8, symSize: 0x38 }
  - { offsetInCU: 0x16C845, offset: 0x17FB18, size: 0x8, addend: 0x0, symName: __ZNKSt3__110__function6__funcIZN7httplib6detail24prepare_content_receiverINS2_8ResponseEZNS3_12read_contentIS5_EEbRNS2_6StreamERT_mRiNS_8functionIFbyyEEENSC_IFbPKcmyyEEEbEUlRKSI_E_EEbSA_SB_SI_bT0_EUlSG_myyE0_NS_9allocatorISN_EESH_E7__cloneEPNS0_6__baseISH_EE, symObjAddr: 0x3041C, symBinAddr: 0x38B30, symSize: 0x18 }
  - { offsetInCU: 0x16C87D, offset: 0x17FB50, size: 0x8, addend: 0x0, symName: __ZNKSt3__110__function6__funcIZN7httplib6detail24prepare_content_receiverINS2_8ResponseEZNS3_12read_contentIS5_EEbRNS2_6StreamERT_mRiNS_8functionIFbyyEEENSC_IFbPKcmyyEEEbEUlRKSI_E_EEbSA_SB_SI_bT0_EUlSG_myyE0_NS_9allocatorISN_EESH_E7__cloneEPNS0_6__baseISH_EE, symObjAddr: 0x3041C, symBinAddr: 0x38B30, symSize: 0x18 }
  - { offsetInCU: 0x16C8AF, offset: 0x17FB82, size: 0x8, addend: 0x0, symName: __ZNKSt3__110__function6__funcIZN7httplib6detail24prepare_content_receiverINS2_8ResponseEZNS3_12read_contentIS5_EEbRNS2_6StreamERT_mRiNS_8functionIFbyyEEENSC_IFbPKcmyyEEEbEUlRKSI_E_EEbSA_SB_SI_bT0_EUlSG_myyE0_NS_9allocatorISN_EESH_E7__cloneEPNS0_6__baseISH_EE, symObjAddr: 0x3041C, symBinAddr: 0x38B30, symSize: 0x18 }
  - { offsetInCU: 0x16C94F, offset: 0x17FC22, size: 0x8, addend: 0x0, symName: __ZNSt3__110__function6__funcIZN7httplib6detail24prepare_content_receiverINS2_8ResponseEZNS3_12read_contentIS5_EEbRNS2_6StreamERT_mRiNS_8functionIFbyyEEENSC_IFbPKcmyyEEEbEUlRKSI_E_EEbSA_SB_SI_bT0_EUlSG_myyE0_NS_9allocatorISN_EESH_E7destroyEv, symObjAddr: 0x30434, symBinAddr: 0x38B48, symSize: 0x4 }
  - { offsetInCU: 0x16C9A2, offset: 0x17FC75, size: 0x8, addend: 0x0, symName: __ZNSt3__110__function6__funcIZN7httplib6detail24prepare_content_receiverINS2_8ResponseEZNS3_12read_contentIS5_EEbRNS2_6StreamERT_mRiNS_8functionIFbyyEEENSC_IFbPKcmyyEEEbEUlRKSI_E_EEbSA_SB_SI_bT0_EUlSG_myyE0_NS_9allocatorISN_EESH_E18destroy_deallocateEv, symObjAddr: 0x30438, symBinAddr: 0x38B4C, symSize: 0x4 }
  - { offsetInCU: 0x16C9D7, offset: 0x17FCAA, size: 0x8, addend: 0x0, symName: __ZNSt3__110__function6__funcIZN7httplib6detail24prepare_content_receiverINS2_8ResponseEZNS3_12read_contentIS5_EEbRNS2_6StreamERT_mRiNS_8functionIFbyyEEENSC_IFbPKcmyyEEEbEUlRKSI_E_EEbSA_SB_SI_bT0_EUlSG_myyE0_NS_9allocatorISN_EESH_E18destroy_deallocateEv, symObjAddr: 0x30438, symBinAddr: 0x38B4C, symSize: 0x4 }
  - { offsetInCU: 0x16C9FC, offset: 0x17FCCF, size: 0x8, addend: 0x0, symName: __ZNSt3__110__function6__funcIZN7httplib6detail24prepare_content_receiverINS2_8ResponseEZNS3_12read_contentIS5_EEbRNS2_6StreamERT_mRiNS_8functionIFbyyEEENSC_IFbPKcmyyEEEbEUlRKSI_E_EEbSA_SB_SI_bT0_EUlSG_myyE0_NS_9allocatorISN_EESH_E18destroy_deallocateEv, symObjAddr: 0x30438, symBinAddr: 0x38B4C, symSize: 0x4 }
  - { offsetInCU: 0x16CA2B, offset: 0x17FCFE, size: 0x8, addend: 0x0, symName: __ZNSt3__110__function6__funcIZN7httplib6detail24prepare_content_receiverINS2_8ResponseEZNS3_12read_contentIS5_EEbRNS2_6StreamERT_mRiNS_8functionIFbyyEEENSC_IFbPKcmyyEEEbEUlRKSI_E_EEbSA_SB_SI_bT0_EUlSG_myyE0_NS_9allocatorISN_EESH_E18destroy_deallocateEv, symObjAddr: 0x30438, symBinAddr: 0x38B4C, symSize: 0x4 }
  - { offsetInCU: 0x16CA54, offset: 0x17FD27, size: 0x8, addend: 0x0, symName: __ZNSt3__110__function6__funcIZN7httplib6detail24prepare_content_receiverINS2_8ResponseEZNS3_12read_contentIS5_EEbRNS2_6StreamERT_mRiNS_8functionIFbyyEEENSC_IFbPKcmyyEEEbEUlRKSI_E_EEbSA_SB_SI_bT0_EUlSG_myyE0_NS_9allocatorISN_EESH_E18destroy_deallocateEv, symObjAddr: 0x30438, symBinAddr: 0x38B4C, symSize: 0x4 }
  - { offsetInCU: 0x16CB74, offset: 0x17FE47, size: 0x8, addend: 0x0, symName: __ZNSt3__110__function6__funcIZN7httplib6detail24prepare_content_receiverINS2_8ResponseEZNS3_12read_contentIS5_EEbRNS2_6StreamERT_mRiNS_8functionIFbyyEEENSC_IFbPKcmyyEEEbEUlRKSI_E_EEbSA_SB_SI_bT0_EUlSG_myyE0_NS_9allocatorISN_EESH_EclEOSG_OmOyST_, symObjAddr: 0x3043C, symBinAddr: 0x38B50, symSize: 0x60 }
  - { offsetInCU: 0x16CD88, offset: 0x18005B, size: 0x8, addend: 0x0, symName: __ZNKSt3__110__function6__funcIZN7httplib6detail24prepare_content_receiverINS2_8ResponseEZNS3_12read_contentIS5_EEbRNS2_6StreamERT_mRiNS_8functionIFbyyEEENSC_IFbPKcmyyEEEbEUlRKSI_E_EEbSA_SB_SI_bT0_EUlSG_myyE0_NS_9allocatorISN_EESH_E6targetERKSt9type_info, symObjAddr: 0x3049C, symBinAddr: 0x38BB0, symSize: 0x74 }
  - { offsetInCU: 0x16CD94, offset: 0x180067, size: 0x8, addend: 0x0, symName: __ZNKSt3__110__function6__funcIZN7httplib6detail24prepare_content_receiverINS2_8ResponseEZNS3_12read_contentIS5_EEbRNS2_6StreamERT_mRiNS_8functionIFbyyEEENSC_IFbPKcmyyEEEbEUlRKSI_E_EEbSA_SB_SI_bT0_EUlSG_myyE0_NS_9allocatorISN_EESH_E6targetERKSt9type_info, symObjAddr: 0x3049C, symBinAddr: 0x38BB0, symSize: 0x74 }
  - { offsetInCU: 0x16CE1F, offset: 0x1800F2, size: 0x8, addend: 0x0, symName: __ZNKSt3__110__function6__funcIZN7httplib6detail24prepare_content_receiverINS2_8ResponseEZNS3_12read_contentIS5_EEbRNS2_6StreamERT_mRiNS_8functionIFbyyEEENSC_IFbPKcmyyEEEbEUlRKSI_E_EEbSA_SB_SI_bT0_EUlSG_myyE0_NS_9allocatorISN_EESH_E11target_typeEv, symObjAddr: 0x30510, symBinAddr: 0x38C24, symSize: 0xC }
  - { offsetInCU: 0x16CE48, offset: 0x18011B, size: 0x8, addend: 0x0, symName: __ZNSt3__110__function6__funcIZN7httplib10ClientImpl15process_requestERNS2_6StreamERNS2_7RequestERNS2_8ResponseEbRNS2_5ErrorEEUlyyE_NS_9allocatorISC_EEFbyyEED1Ev, symObjAddr: 0x3051C, symBinAddr: 0x38C30, symSize: 0x4 }
  - { offsetInCU: 0x16CE74, offset: 0x180147, size: 0x8, addend: 0x0, symName: __ZNSt3__110__function6__funcIZN7httplib10ClientImpl15process_requestERNS2_6StreamERNS2_7RequestERNS2_8ResponseEbRNS2_5ErrorEEUlyyE_NS_9allocatorISC_EEFbyyEED0Ev, symObjAddr: 0x30520, symBinAddr: 0x38C34, symSize: 0x4 }
  - { offsetInCU: 0x16D052, offset: 0x180325, size: 0x8, addend: 0x0, symName: __ZNKSt3__110__function6__funcIZN7httplib10ClientImpl15process_requestERNS2_6StreamERNS2_7RequestERNS2_8ResponseEbRNS2_5ErrorEEUlyyE_NS_9allocatorISC_EEFbyyEE7__cloneEv, symObjAddr: 0x30524, symBinAddr: 0x38C38, symSize: 0x44 }
  - { offsetInCU: 0x16D38F, offset: 0x180662, size: 0x8, addend: 0x0, symName: __ZNKSt3__110__function6__funcIZN7httplib10ClientImpl15process_requestERNS2_6StreamERNS2_7RequestERNS2_8ResponseEbRNS2_5ErrorEEUlyyE_NS_9allocatorISC_EEFbyyEE7__cloneEPNS0_6__baseISF_EE, symObjAddr: 0x30568, symBinAddr: 0x38C7C, symSize: 0x24 }
  - { offsetInCU: 0x16D3C7, offset: 0x18069A, size: 0x8, addend: 0x0, symName: __ZNKSt3__110__function6__funcIZN7httplib10ClientImpl15process_requestERNS2_6StreamERNS2_7RequestERNS2_8ResponseEbRNS2_5ErrorEEUlyyE_NS_9allocatorISC_EEFbyyEE7__cloneEPNS0_6__baseISF_EE, symObjAddr: 0x30568, symBinAddr: 0x38C7C, symSize: 0x24 }
  - { offsetInCU: 0x16D3F9, offset: 0x1806CC, size: 0x8, addend: 0x0, symName: __ZNKSt3__110__function6__funcIZN7httplib10ClientImpl15process_requestERNS2_6StreamERNS2_7RequestERNS2_8ResponseEbRNS2_5ErrorEEUlyyE_NS_9allocatorISC_EEFbyyEE7__cloneEPNS0_6__baseISF_EE, symObjAddr: 0x30568, symBinAddr: 0x38C7C, symSize: 0x24 }
  - { offsetInCU: 0x16D526, offset: 0x1807F9, size: 0x8, addend: 0x0, symName: __ZNSt3__110__function6__funcIZN7httplib10ClientImpl15process_requestERNS2_6StreamERNS2_7RequestERNS2_8ResponseEbRNS2_5ErrorEEUlyyE_NS_9allocatorISC_EEFbyyEE7destroyEv, symObjAddr: 0x3058C, symBinAddr: 0x38CA0, symSize: 0x4 }
  - { offsetInCU: 0x16D579, offset: 0x18084C, size: 0x8, addend: 0x0, symName: __ZNSt3__110__function6__funcIZN7httplib10ClientImpl15process_requestERNS2_6StreamERNS2_7RequestERNS2_8ResponseEbRNS2_5ErrorEEUlyyE_NS_9allocatorISC_EEFbyyEE18destroy_deallocateEv, symObjAddr: 0x30590, symBinAddr: 0x38CA4, symSize: 0x4 }
  - { offsetInCU: 0x16D5AE, offset: 0x180881, size: 0x8, addend: 0x0, symName: __ZNSt3__110__function6__funcIZN7httplib10ClientImpl15process_requestERNS2_6StreamERNS2_7RequestERNS2_8ResponseEbRNS2_5ErrorEEUlyyE_NS_9allocatorISC_EEFbyyEE18destroy_deallocateEv, symObjAddr: 0x30590, symBinAddr: 0x38CA4, symSize: 0x4 }
  - { offsetInCU: 0x16D5D3, offset: 0x1808A6, size: 0x8, addend: 0x0, symName: __ZNSt3__110__function6__funcIZN7httplib10ClientImpl15process_requestERNS2_6StreamERNS2_7RequestERNS2_8ResponseEbRNS2_5ErrorEEUlyyE_NS_9allocatorISC_EEFbyyEE18destroy_deallocateEv, symObjAddr: 0x30590, symBinAddr: 0x38CA4, symSize: 0x4 }
  - { offsetInCU: 0x16D602, offset: 0x1808D5, size: 0x8, addend: 0x0, symName: __ZNSt3__110__function6__funcIZN7httplib10ClientImpl15process_requestERNS2_6StreamERNS2_7RequestERNS2_8ResponseEbRNS2_5ErrorEEUlyyE_NS_9allocatorISC_EEFbyyEE18destroy_deallocateEv, symObjAddr: 0x30590, symBinAddr: 0x38CA4, symSize: 0x4 }
  - { offsetInCU: 0x16D62B, offset: 0x1808FE, size: 0x8, addend: 0x0, symName: __ZNSt3__110__function6__funcIZN7httplib10ClientImpl15process_requestERNS2_6StreamERNS2_7RequestERNS2_8ResponseEbRNS2_5ErrorEEUlyyE_NS_9allocatorISC_EEFbyyEE18destroy_deallocateEv, symObjAddr: 0x30590, symBinAddr: 0x38CA4, symSize: 0x4 }
  - { offsetInCU: 0x16D707, offset: 0x1809DA, size: 0x8, addend: 0x0, symName: __ZNSt3__110__function6__funcIZN7httplib10ClientImpl15process_requestERNS2_6StreamERNS2_7RequestERNS2_8ResponseEbRNS2_5ErrorEEUlyyE_NS_9allocatorISC_EEFbyyEEclEOySH_, symObjAddr: 0x30594, symBinAddr: 0x38CA8, symSize: 0x84 }
  - { offsetInCU: 0x16D8BC, offset: 0x180B8F, size: 0x8, addend: 0x0, symName: __ZNKSt3__110__function6__funcIZN7httplib10ClientImpl15process_requestERNS2_6StreamERNS2_7RequestERNS2_8ResponseEbRNS2_5ErrorEEUlyyE_NS_9allocatorISC_EEFbyyEE6targetERKSt9type_info, symObjAddr: 0x30618, symBinAddr: 0x38D2C, symSize: 0x74 }
  - { offsetInCU: 0x16D947, offset: 0x180C1A, size: 0x8, addend: 0x0, symName: __ZNKSt3__110__function6__funcIZN7httplib10ClientImpl15process_requestERNS2_6StreamERNS2_7RequestERNS2_8ResponseEbRNS2_5ErrorEEUlyyE_NS_9allocatorISC_EEFbyyEE11target_typeEv, symObjAddr: 0x3068C, symBinAddr: 0x38DA0, symSize: 0xC }
  - { offsetInCU: 0x16DD0B, offset: 0x180FDE, size: 0x8, addend: 0x0, symName: __ZNSt3__110__function6__funcIZN7httplib9SSLClient18connect_with_proxyERNS2_10ClientImpl6SocketERNS2_8ResponseERbRNS2_5ErrorEEUlRNS2_6StreamEE0_NS_9allocatorISE_EEFbSD_EED1Ev, symObjAddr: 0x30B54, symBinAddr: 0x39268, symSize: 0x4 }
  - { offsetInCU: 0x16DD37, offset: 0x18100A, size: 0x8, addend: 0x0, symName: __ZNSt3__110__function6__funcIZN7httplib9SSLClient18connect_with_proxyERNS2_10ClientImpl6SocketERNS2_8ResponseERbRNS2_5ErrorEEUlRNS2_6StreamEE0_NS_9allocatorISE_EEFbSD_EED0Ev, symObjAddr: 0x30B58, symBinAddr: 0x3926C, symSize: 0x4 }
  - { offsetInCU: 0x16DF15, offset: 0x1811E8, size: 0x8, addend: 0x0, symName: __ZNKSt3__110__function6__funcIZN7httplib9SSLClient18connect_with_proxyERNS2_10ClientImpl6SocketERNS2_8ResponseERbRNS2_5ErrorEEUlRNS2_6StreamEE0_NS_9allocatorISE_EEFbSD_EE7__cloneEv, symObjAddr: 0x30B5C, symBinAddr: 0x39270, symSize: 0x44 }
  - { offsetInCU: 0x16E252, offset: 0x181525, size: 0x8, addend: 0x0, symName: __ZNKSt3__110__function6__funcIZN7httplib9SSLClient18connect_with_proxyERNS2_10ClientImpl6SocketERNS2_8ResponseERbRNS2_5ErrorEEUlRNS2_6StreamEE0_NS_9allocatorISE_EEFbSD_EE7__cloneEPNS0_6__baseISH_EE, symObjAddr: 0x30BA0, symBinAddr: 0x392B4, symSize: 0x24 }
  - { offsetInCU: 0x16E28A, offset: 0x18155D, size: 0x8, addend: 0x0, symName: __ZNKSt3__110__function6__funcIZN7httplib9SSLClient18connect_with_proxyERNS2_10ClientImpl6SocketERNS2_8ResponseERbRNS2_5ErrorEEUlRNS2_6StreamEE0_NS_9allocatorISE_EEFbSD_EE7__cloneEPNS0_6__baseISH_EE, symObjAddr: 0x30BA0, symBinAddr: 0x392B4, symSize: 0x24 }
  - { offsetInCU: 0x16E2BC, offset: 0x18158F, size: 0x8, addend: 0x0, symName: __ZNKSt3__110__function6__funcIZN7httplib9SSLClient18connect_with_proxyERNS2_10ClientImpl6SocketERNS2_8ResponseERbRNS2_5ErrorEEUlRNS2_6StreamEE0_NS_9allocatorISE_EEFbSD_EE7__cloneEPNS0_6__baseISH_EE, symObjAddr: 0x30BA0, symBinAddr: 0x392B4, symSize: 0x24 }
  - { offsetInCU: 0x16E3E9, offset: 0x1816BC, size: 0x8, addend: 0x0, symName: __ZNSt3__110__function6__funcIZN7httplib9SSLClient18connect_with_proxyERNS2_10ClientImpl6SocketERNS2_8ResponseERbRNS2_5ErrorEEUlRNS2_6StreamEE0_NS_9allocatorISE_EEFbSD_EE7destroyEv, symObjAddr: 0x30BC4, symBinAddr: 0x392D8, symSize: 0x4 }
  - { offsetInCU: 0x16E43C, offset: 0x18170F, size: 0x8, addend: 0x0, symName: __ZNSt3__110__function6__funcIZN7httplib9SSLClient18connect_with_proxyERNS2_10ClientImpl6SocketERNS2_8ResponseERbRNS2_5ErrorEEUlRNS2_6StreamEE0_NS_9allocatorISE_EEFbSD_EE18destroy_deallocateEv, symObjAddr: 0x30BC8, symBinAddr: 0x392DC, symSize: 0x4 }
  - { offsetInCU: 0x16E471, offset: 0x181744, size: 0x8, addend: 0x0, symName: __ZNSt3__110__function6__funcIZN7httplib9SSLClient18connect_with_proxyERNS2_10ClientImpl6SocketERNS2_8ResponseERbRNS2_5ErrorEEUlRNS2_6StreamEE0_NS_9allocatorISE_EEFbSD_EE18destroy_deallocateEv, symObjAddr: 0x30BC8, symBinAddr: 0x392DC, symSize: 0x4 }
  - { offsetInCU: 0x16E496, offset: 0x181769, size: 0x8, addend: 0x0, symName: __ZNSt3__110__function6__funcIZN7httplib9SSLClient18connect_with_proxyERNS2_10ClientImpl6SocketERNS2_8ResponseERbRNS2_5ErrorEEUlRNS2_6StreamEE0_NS_9allocatorISE_EEFbSD_EE18destroy_deallocateEv, symObjAddr: 0x30BC8, symBinAddr: 0x392DC, symSize: 0x4 }
  - { offsetInCU: 0x16E4C6, offset: 0x181799, size: 0x8, addend: 0x0, symName: __ZNSt3__110__function6__funcIZN7httplib9SSLClient18connect_with_proxyERNS2_10ClientImpl6SocketERNS2_8ResponseERbRNS2_5ErrorEEUlRNS2_6StreamEE0_NS_9allocatorISE_EEFbSD_EE18destroy_deallocateEv, symObjAddr: 0x30BC8, symBinAddr: 0x392DC, symSize: 0x4 }
  - { offsetInCU: 0x16E4F0, offset: 0x1817C3, size: 0x8, addend: 0x0, symName: __ZNSt3__110__function6__funcIZN7httplib9SSLClient18connect_with_proxyERNS2_10ClientImpl6SocketERNS2_8ResponseERbRNS2_5ErrorEEUlRNS2_6StreamEE0_NS_9allocatorISE_EEFbSD_EE18destroy_deallocateEv, symObjAddr: 0x30BC8, symBinAddr: 0x392DC, symSize: 0x4 }
  - { offsetInCU: 0x16E51C, offset: 0x1817EF, size: 0x8, addend: 0x0, symName: __ZNSt3__110__function6__funcIZN7httplib9SSLClient18connect_with_proxyERNS2_10ClientImpl6SocketERNS2_8ResponseERbRNS2_5ErrorEEUlRNS2_6StreamEE0_NS_9allocatorISE_EEFbSD_EEclESD_, symObjAddr: 0x30BCC, symBinAddr: 0x392E0, symSize: 0x8 }
  - { offsetInCU: 0x16E5D1, offset: 0x1818A4, size: 0x8, addend: 0x0, symName: __ZNKSt3__110__function6__funcIZN7httplib9SSLClient18connect_with_proxyERNS2_10ClientImpl6SocketERNS2_8ResponseERbRNS2_5ErrorEEUlRNS2_6StreamEE0_NS_9allocatorISE_EEFbSD_EE6targetERKSt9type_info, symObjAddr: 0x30BD4, symBinAddr: 0x392E8, symSize: 0x74 }
  - { offsetInCU: 0x16E65C, offset: 0x18192F, size: 0x8, addend: 0x0, symName: __ZNKSt3__110__function6__funcIZN7httplib9SSLClient18connect_with_proxyERNS2_10ClientImpl6SocketERNS2_8ResponseERbRNS2_5ErrorEEUlRNS2_6StreamEE0_NS_9allocatorISE_EEFbSD_EE11target_typeEv, symObjAddr: 0x30C48, symBinAddr: 0x3935C, symSize: 0xC }
  - { offsetInCU: 0x16E98E, offset: 0x181C61, size: 0x8, addend: 0x0, symName: __ZNSt3__118basic_stringstreamIcNS_11char_traitsIcEENS_9allocatorIcEEED1Ev, symObjAddr: 0x336D4, symBinAddr: 0x3BDE8, symSize: 0x94 }
  - { offsetInCU: 0x16EB7C, offset: 0x181E4F, size: 0x8, addend: 0x0, symName: __ZNSt3__118basic_stringstreamIcNS_11char_traitsIcEENS_9allocatorIcEEED0Ev, symObjAddr: 0x337F8, symBinAddr: 0x3BF0C, symSize: 0x94 }
  - { offsetInCU: 0x16ED47, offset: 0x18201A, size: 0x8, addend: 0x0, symName: __ZThn16_NSt3__118basic_stringstreamIcNS_11char_traitsIcEENS_9allocatorIcEEED1Ev, symObjAddr: 0x3388C, symBinAddr: 0x3BFA0, symSize: 0x8C }
  - { offsetInCU: 0x16EF25, offset: 0x1821F8, size: 0x8, addend: 0x0, symName: __ZThn16_NSt3__118basic_stringstreamIcNS_11char_traitsIcEENS_9allocatorIcEEED0Ev, symObjAddr: 0x33918, symBinAddr: 0x3C02C, symSize: 0x94 }
  - { offsetInCU: 0x16F107, offset: 0x1823DA, size: 0x8, addend: 0x0, symName: __ZTv0_n24_NSt3__118basic_stringstreamIcNS_11char_traitsIcEENS_9allocatorIcEEED1Ev, symObjAddr: 0x339AC, symBinAddr: 0x3C0C0, symSize: 0x94 }
  - { offsetInCU: 0x16F2C7, offset: 0x18259A, size: 0x8, addend: 0x0, symName: __ZTv0_n24_NSt3__118basic_stringstreamIcNS_11char_traitsIcEENS_9allocatorIcEEED0Ev, symObjAddr: 0x33A40, symBinAddr: 0x3C154, symSize: 0x9C }
  - { offsetInCU: 0x16F7F4, offset: 0x182AC7, size: 0x8, addend: 0x0, symName: __ZZN7httplib9SSLClient14initialize_sslERNS_10ClientImpl6SocketERNS_5ErrorEENKUlP6ssl_stE_clES7_, symObjAddr: 0x34394, symBinAddr: 0x3CAA8, symSize: 0x348 }
  - { offsetInCU: 0x170081, offset: 0x183354, size: 0x8, addend: 0x0, symName: __ZNK7httplib9SSLClient33verify_host_with_subject_alt_nameEP7x509_st, symObjAddr: 0x34B58, symBinAddr: 0x3D26C, symSize: 0x220 }
  - { offsetInCU: 0x1704E8, offset: 0x1837BB, size: 0x8, addend: 0x0, symName: __ZZN7httplib9SSLClient10load_certsEvENKUlvE_clEv, symObjAddr: 0x346E8, symBinAddr: 0x3CDFC, symSize: 0xE8 }
  - { offsetInCU: 0x171396, offset: 0x184669, size: 0x8, addend: 0x0, symName: __ZNSt3__110__function6__funcIZNK7httplib9SSLClient15check_host_nameEPKcmEUlS5_S5_E_NS_9allocatorIS6_EEFvS5_S5_EED1Ev, symObjAddr: 0x35108, symBinAddr: 0x3D81C, symSize: 0x4 }
  - { offsetInCU: 0x1713C2, offset: 0x184695, size: 0x8, addend: 0x0, symName: __ZNSt3__110__function6__funcIZNK7httplib9SSLClient15check_host_nameEPKcmEUlS5_S5_E_NS_9allocatorIS6_EEFvS5_S5_EED0Ev, symObjAddr: 0x3510C, symBinAddr: 0x3D820, symSize: 0x4 }
  - { offsetInCU: 0x1715C6, offset: 0x184899, size: 0x8, addend: 0x0, symName: __ZNKSt3__110__function6__funcIZNK7httplib9SSLClient15check_host_nameEPKcmEUlS5_S5_E_NS_9allocatorIS6_EEFvS5_S5_EE7__cloneEv, symObjAddr: 0x35110, symBinAddr: 0x3D824, symSize: 0x38 }
  - { offsetInCU: 0x1718D1, offset: 0x184BA4, size: 0x8, addend: 0x0, symName: __ZNKSt3__110__function6__funcIZNK7httplib9SSLClient15check_host_nameEPKcmEUlS5_S5_E_NS_9allocatorIS6_EEFvS5_S5_EE7__cloneEPNS0_6__baseIS9_EE, symObjAddr: 0x35148, symBinAddr: 0x3D85C, symSize: 0x18 }
  - { offsetInCU: 0x171909, offset: 0x184BDC, size: 0x8, addend: 0x0, symName: __ZNKSt3__110__function6__funcIZNK7httplib9SSLClient15check_host_nameEPKcmEUlS5_S5_E_NS_9allocatorIS6_EEFvS5_S5_EE7__cloneEPNS0_6__baseIS9_EE, symObjAddr: 0x35148, symBinAddr: 0x3D85C, symSize: 0x18 }
  - { offsetInCU: 0x17193B, offset: 0x184C0E, size: 0x8, addend: 0x0, symName: __ZNKSt3__110__function6__funcIZNK7httplib9SSLClient15check_host_nameEPKcmEUlS5_S5_E_NS_9allocatorIS6_EEFvS5_S5_EE7__cloneEPNS0_6__baseIS9_EE, symObjAddr: 0x35148, symBinAddr: 0x3D85C, symSize: 0x18 }
  - { offsetInCU: 0x1719DB, offset: 0x184CAE, size: 0x8, addend: 0x0, symName: __ZNSt3__110__function6__funcIZNK7httplib9SSLClient15check_host_nameEPKcmEUlS5_S5_E_NS_9allocatorIS6_EEFvS5_S5_EE7destroyEv, symObjAddr: 0x35160, symBinAddr: 0x3D874, symSize: 0x4 }
  - { offsetInCU: 0x171A2E, offset: 0x184D01, size: 0x8, addend: 0x0, symName: __ZNSt3__110__function6__funcIZNK7httplib9SSLClient15check_host_nameEPKcmEUlS5_S5_E_NS_9allocatorIS6_EEFvS5_S5_EE18destroy_deallocateEv, symObjAddr: 0x35164, symBinAddr: 0x3D878, symSize: 0x4 }
  - { offsetInCU: 0x171A63, offset: 0x184D36, size: 0x8, addend: 0x0, symName: __ZNSt3__110__function6__funcIZNK7httplib9SSLClient15check_host_nameEPKcmEUlS5_S5_E_NS_9allocatorIS6_EEFvS5_S5_EE18destroy_deallocateEv, symObjAddr: 0x35164, symBinAddr: 0x3D878, symSize: 0x4 }
  - { offsetInCU: 0x171A88, offset: 0x184D5B, size: 0x8, addend: 0x0, symName: __ZNSt3__110__function6__funcIZNK7httplib9SSLClient15check_host_nameEPKcmEUlS5_S5_E_NS_9allocatorIS6_EEFvS5_S5_EE18destroy_deallocateEv, symObjAddr: 0x35164, symBinAddr: 0x3D878, symSize: 0x4 }
  - { offsetInCU: 0x171AB7, offset: 0x184D8A, size: 0x8, addend: 0x0, symName: __ZNSt3__110__function6__funcIZNK7httplib9SSLClient15check_host_nameEPKcmEUlS5_S5_E_NS_9allocatorIS6_EEFvS5_S5_EE18destroy_deallocateEv, symObjAddr: 0x35164, symBinAddr: 0x3D878, symSize: 0x4 }
  - { offsetInCU: 0x171AE0, offset: 0x184DB3, size: 0x8, addend: 0x0, symName: __ZNSt3__110__function6__funcIZNK7httplib9SSLClient15check_host_nameEPKcmEUlS5_S5_E_NS_9allocatorIS6_EEFvS5_S5_EE18destroy_deallocateEv, symObjAddr: 0x35164, symBinAddr: 0x3D878, symSize: 0x4 }
  - { offsetInCU: 0x171B38, offset: 0x184E0B, size: 0x8, addend: 0x0, symName: __ZNSt3__110__function6__funcIZNK7httplib9SSLClient15check_host_nameEPKcmEUlS5_S5_E_NS_9allocatorIS6_EEFvS5_S5_EEclEOS5_SB_, symObjAddr: 0x35168, symBinAddr: 0x3D87C, symSize: 0x8 }
  - { offsetInCU: 0x171BCB, offset: 0x184E9E, size: 0x8, addend: 0x0, symName: __ZNSt3__128__invoke_void_return_wrapperIvLb1EE6__callB8ue170006IJRZNK7httplib9SSLClient15check_host_nameEPKcmEUlS6_S6_E_S6_S6_EEEvDpOT_, symObjAddr: 0x351F0, symBinAddr: 0x3D904, symSize: 0x12C }
  - { offsetInCU: 0x172301, offset: 0x1855D4, size: 0x8, addend: 0x0, symName: __ZNKSt3__110__function6__funcIZNK7httplib9SSLClient15check_host_nameEPKcmEUlS5_S5_E_NS_9allocatorIS6_EEFvS5_S5_EE6targetERKSt9type_info, symObjAddr: 0x35170, symBinAddr: 0x3D884, symSize: 0x74 }
  - { offsetInCU: 0x17238C, offset: 0x18565F, size: 0x8, addend: 0x0, symName: __ZNKSt3__110__function6__funcIZNK7httplib9SSLClient15check_host_nameEPKcmEUlS5_S5_E_NS_9allocatorIS6_EEFvS5_S5_EE11target_typeEv, symObjAddr: 0x351E4, symBinAddr: 0x3D8F8, symSize: 0xC }
  - { offsetInCU: 0x172431, offset: 0x185704, size: 0x8, addend: 0x0, symName: __ZNSt3__110__function6__funcIZN7httplib10ClientImpl5send_ERNS2_7RequestERNS2_8ResponseERNS2_5ErrorEEUlvE_NS_9allocatorISA_EEFvvEED1Ev, symObjAddr: 0x354BC, symBinAddr: 0x3DBD0, symSize: 0x4 }
  - { offsetInCU: 0x17245D, offset: 0x185730, size: 0x8, addend: 0x0, symName: __ZNSt3__110__function6__funcIZN7httplib10ClientImpl5send_ERNS2_7RequestERNS2_8ResponseERNS2_5ErrorEEUlvE_NS_9allocatorISA_EEFvvEED0Ev, symObjAddr: 0x354C0, symBinAddr: 0x3DBD4, symSize: 0x4 }
  - { offsetInCU: 0x17263B, offset: 0x18590E, size: 0x8, addend: 0x0, symName: __ZNKSt3__110__function6__funcIZN7httplib10ClientImpl5send_ERNS2_7RequestERNS2_8ResponseERNS2_5ErrorEEUlvE_NS_9allocatorISA_EEFvvEE7__cloneEv, symObjAddr: 0x354C4, symBinAddr: 0x3DBD8, symSize: 0x44 }
  - { offsetInCU: 0x172978, offset: 0x185C4B, size: 0x8, addend: 0x0, symName: __ZNKSt3__110__function6__funcIZN7httplib10ClientImpl5send_ERNS2_7RequestERNS2_8ResponseERNS2_5ErrorEEUlvE_NS_9allocatorISA_EEFvvEE7__cloneEPNS0_6__baseISD_EE, symObjAddr: 0x35508, symBinAddr: 0x3DC1C, symSize: 0x24 }
  - { offsetInCU: 0x1729B0, offset: 0x185C83, size: 0x8, addend: 0x0, symName: __ZNKSt3__110__function6__funcIZN7httplib10ClientImpl5send_ERNS2_7RequestERNS2_8ResponseERNS2_5ErrorEEUlvE_NS_9allocatorISA_EEFvvEE7__cloneEPNS0_6__baseISD_EE, symObjAddr: 0x35508, symBinAddr: 0x3DC1C, symSize: 0x24 }
  - { offsetInCU: 0x1729E2, offset: 0x185CB5, size: 0x8, addend: 0x0, symName: __ZNKSt3__110__function6__funcIZN7httplib10ClientImpl5send_ERNS2_7RequestERNS2_8ResponseERNS2_5ErrorEEUlvE_NS_9allocatorISA_EEFvvEE7__cloneEPNS0_6__baseISD_EE, symObjAddr: 0x35508, symBinAddr: 0x3DC1C, symSize: 0x24 }
  - { offsetInCU: 0x172B0F, offset: 0x185DE2, size: 0x8, addend: 0x0, symName: __ZNSt3__110__function6__funcIZN7httplib10ClientImpl5send_ERNS2_7RequestERNS2_8ResponseERNS2_5ErrorEEUlvE_NS_9allocatorISA_EEFvvEE7destroyEv, symObjAddr: 0x3552C, symBinAddr: 0x3DC40, symSize: 0x4 }
  - { offsetInCU: 0x172B62, offset: 0x185E35, size: 0x8, addend: 0x0, symName: __ZNSt3__110__function6__funcIZN7httplib10ClientImpl5send_ERNS2_7RequestERNS2_8ResponseERNS2_5ErrorEEUlvE_NS_9allocatorISA_EEFvvEE18destroy_deallocateEv, symObjAddr: 0x35530, symBinAddr: 0x3DC44, symSize: 0x4 }
  - { offsetInCU: 0x172B97, offset: 0x185E6A, size: 0x8, addend: 0x0, symName: __ZNSt3__110__function6__funcIZN7httplib10ClientImpl5send_ERNS2_7RequestERNS2_8ResponseERNS2_5ErrorEEUlvE_NS_9allocatorISA_EEFvvEE18destroy_deallocateEv, symObjAddr: 0x35530, symBinAddr: 0x3DC44, symSize: 0x4 }
  - { offsetInCU: 0x172BBC, offset: 0x185E8F, size: 0x8, addend: 0x0, symName: __ZNSt3__110__function6__funcIZN7httplib10ClientImpl5send_ERNS2_7RequestERNS2_8ResponseERNS2_5ErrorEEUlvE_NS_9allocatorISA_EEFvvEE18destroy_deallocateEv, symObjAddr: 0x35530, symBinAddr: 0x3DC44, symSize: 0x4 }
  - { offsetInCU: 0x172BEB, offset: 0x185EBE, size: 0x8, addend: 0x0, symName: __ZNSt3__110__function6__funcIZN7httplib10ClientImpl5send_ERNS2_7RequestERNS2_8ResponseERNS2_5ErrorEEUlvE_NS_9allocatorISA_EEFvvEE18destroy_deallocateEv, symObjAddr: 0x35530, symBinAddr: 0x3DC44, symSize: 0x4 }
  - { offsetInCU: 0x172C14, offset: 0x185EE7, size: 0x8, addend: 0x0, symName: __ZNSt3__110__function6__funcIZN7httplib10ClientImpl5send_ERNS2_7RequestERNS2_8ResponseERNS2_5ErrorEEUlvE_NS_9allocatorISA_EEFvvEE18destroy_deallocateEv, symObjAddr: 0x35530, symBinAddr: 0x3DC44, symSize: 0x4 }
  - { offsetInCU: 0x172C56, offset: 0x185F29, size: 0x8, addend: 0x0, symName: __ZNSt3__110__function6__funcIZN7httplib10ClientImpl5send_ERNS2_7RequestERNS2_8ResponseERNS2_5ErrorEEUlvE_NS_9allocatorISA_EEFvvEEclEv, symObjAddr: 0x35534, symBinAddr: 0x3DC48, symSize: 0x8 }
  - { offsetInCU: 0x172CAC, offset: 0x185F7F, size: 0x8, addend: 0x0, symName: __ZNSt3__128__invoke_void_return_wrapperIvLb1EE6__callB8ue170006IJRZN7httplib10ClientImpl5send_ERNS3_7RequestERNS3_8ResponseERNS3_5ErrorEEUlvE_EEEvDpOT_, symObjAddr: 0x355BC, symBinAddr: 0x3DCD0, symSize: 0xD8 }
  - { offsetInCU: 0x172E7A, offset: 0x18614D, size: 0x8, addend: 0x0, symName: __ZNKSt3__110__function6__funcIZN7httplib10ClientImpl5send_ERNS2_7RequestERNS2_8ResponseERNS2_5ErrorEEUlvE_NS_9allocatorISA_EEFvvEE6targetERKSt9type_info, symObjAddr: 0x3553C, symBinAddr: 0x3DC50, symSize: 0x74 }
  - { offsetInCU: 0x172F05, offset: 0x1861D8, size: 0x8, addend: 0x0, symName: __ZNKSt3__110__function6__funcIZN7httplib10ClientImpl5send_ERNS2_7RequestERNS2_8ResponseERNS2_5ErrorEEUlvE_NS_9allocatorISA_EEFvvEE11target_typeEv, symObjAddr: 0x355B0, symBinAddr: 0x3DCC4, symSize: 0xC }
  - { offsetInCU: 0x172F59, offset: 0x18622C, size: 0x8, addend: 0x0, symName: __ZNSt3__110__function6__funcIZN7httplib10ClientImpl5send_ERNS2_7RequestERNS2_8ResponseERNS2_5ErrorEEUlRNS2_6StreamEE_NS_9allocatorISC_EEFbSB_EED1Ev, symObjAddr: 0x35694, symBinAddr: 0x3DDA8, symSize: 0x4 }
  - { offsetInCU: 0x172F85, offset: 0x186258, size: 0x8, addend: 0x0, symName: __ZNSt3__110__function6__funcIZN7httplib10ClientImpl5send_ERNS2_7RequestERNS2_8ResponseERNS2_5ErrorEEUlRNS2_6StreamEE_NS_9allocatorISC_EEFbSB_EED0Ev, symObjAddr: 0x35698, symBinAddr: 0x3DDAC, symSize: 0x4 }
  - { offsetInCU: 0x173163, offset: 0x186436, size: 0x8, addend: 0x0, symName: __ZNKSt3__110__function6__funcIZN7httplib10ClientImpl5send_ERNS2_7RequestERNS2_8ResponseERNS2_5ErrorEEUlRNS2_6StreamEE_NS_9allocatorISC_EEFbSB_EE7__cloneEv, symObjAddr: 0x3569C, symBinAddr: 0x3DDB0, symSize: 0x4C }
  - { offsetInCU: 0x1734A0, offset: 0x186773, size: 0x8, addend: 0x0, symName: __ZNKSt3__110__function6__funcIZN7httplib10ClientImpl5send_ERNS2_7RequestERNS2_8ResponseERNS2_5ErrorEEUlRNS2_6StreamEE_NS_9allocatorISC_EEFbSB_EE7__cloneEPNS0_6__baseISF_EE, symObjAddr: 0x356E8, symBinAddr: 0x3DDFC, symSize: 0x2C }
  - { offsetInCU: 0x1734D8, offset: 0x1867AB, size: 0x8, addend: 0x0, symName: __ZNKSt3__110__function6__funcIZN7httplib10ClientImpl5send_ERNS2_7RequestERNS2_8ResponseERNS2_5ErrorEEUlRNS2_6StreamEE_NS_9allocatorISC_EEFbSB_EE7__cloneEPNS0_6__baseISF_EE, symObjAddr: 0x356E8, symBinAddr: 0x3DDFC, symSize: 0x2C }
  - { offsetInCU: 0x17350A, offset: 0x1867DD, size: 0x8, addend: 0x0, symName: __ZNKSt3__110__function6__funcIZN7httplib10ClientImpl5send_ERNS2_7RequestERNS2_8ResponseERNS2_5ErrorEEUlRNS2_6StreamEE_NS_9allocatorISC_EEFbSB_EE7__cloneEPNS0_6__baseISF_EE, symObjAddr: 0x356E8, symBinAddr: 0x3DDFC, symSize: 0x2C }
  - { offsetInCU: 0x173637, offset: 0x18690A, size: 0x8, addend: 0x0, symName: __ZNSt3__110__function6__funcIZN7httplib10ClientImpl5send_ERNS2_7RequestERNS2_8ResponseERNS2_5ErrorEEUlRNS2_6StreamEE_NS_9allocatorISC_EEFbSB_EE7destroyEv, symObjAddr: 0x35714, symBinAddr: 0x3DE28, symSize: 0x4 }
  - { offsetInCU: 0x17368A, offset: 0x18695D, size: 0x8, addend: 0x0, symName: __ZNSt3__110__function6__funcIZN7httplib10ClientImpl5send_ERNS2_7RequestERNS2_8ResponseERNS2_5ErrorEEUlRNS2_6StreamEE_NS_9allocatorISC_EEFbSB_EE18destroy_deallocateEv, symObjAddr: 0x35718, symBinAddr: 0x3DE2C, symSize: 0x4 }
  - { offsetInCU: 0x1736BF, offset: 0x186992, size: 0x8, addend: 0x0, symName: __ZNSt3__110__function6__funcIZN7httplib10ClientImpl5send_ERNS2_7RequestERNS2_8ResponseERNS2_5ErrorEEUlRNS2_6StreamEE_NS_9allocatorISC_EEFbSB_EE18destroy_deallocateEv, symObjAddr: 0x35718, symBinAddr: 0x3DE2C, symSize: 0x4 }
  - { offsetInCU: 0x1736E4, offset: 0x1869B7, size: 0x8, addend: 0x0, symName: __ZNSt3__110__function6__funcIZN7httplib10ClientImpl5send_ERNS2_7RequestERNS2_8ResponseERNS2_5ErrorEEUlRNS2_6StreamEE_NS_9allocatorISC_EEFbSB_EE18destroy_deallocateEv, symObjAddr: 0x35718, symBinAddr: 0x3DE2C, symSize: 0x4 }
  - { offsetInCU: 0x173714, offset: 0x1869E7, size: 0x8, addend: 0x0, symName: __ZNSt3__110__function6__funcIZN7httplib10ClientImpl5send_ERNS2_7RequestERNS2_8ResponseERNS2_5ErrorEEUlRNS2_6StreamEE_NS_9allocatorISC_EEFbSB_EE18destroy_deallocateEv, symObjAddr: 0x35718, symBinAddr: 0x3DE2C, symSize: 0x4 }
  - { offsetInCU: 0x17373E, offset: 0x186A11, size: 0x8, addend: 0x0, symName: __ZNSt3__110__function6__funcIZN7httplib10ClientImpl5send_ERNS2_7RequestERNS2_8ResponseERNS2_5ErrorEEUlRNS2_6StreamEE_NS_9allocatorISC_EEFbSB_EE18destroy_deallocateEv, symObjAddr: 0x35718, symBinAddr: 0x3DE2C, symSize: 0x4 }
  - { offsetInCU: 0x1737E6, offset: 0x186AB9, size: 0x8, addend: 0x0, symName: __ZNSt3__110__function6__funcIZN7httplib10ClientImpl5send_ERNS2_7RequestERNS2_8ResponseERNS2_5ErrorEEUlRNS2_6StreamEE_NS_9allocatorISC_EEFbSB_EEclESB_, symObjAddr: 0x3571C, symBinAddr: 0x3DE30, symSize: 0x18 }
  - { offsetInCU: 0x1738D7, offset: 0x186BAA, size: 0x8, addend: 0x0, symName: __ZN7httplib10ClientImpl14handle_requestERNS_6StreamERNS_7RequestERNS_8ResponseEbRNS_5ErrorE, symObjAddr: 0x357B4, symBinAddr: 0x3DEC8, symSize: 0x4F8 }
  - { offsetInCU: 0x174FAA, offset: 0x18827D, size: 0x8, addend: 0x0, symName: __ZNKSt3__110__function6__funcIZN7httplib10ClientImpl5send_ERNS2_7RequestERNS2_8ResponseERNS2_5ErrorEEUlRNS2_6StreamEE_NS_9allocatorISC_EEFbSB_EE6targetERKSt9type_info, symObjAddr: 0x35734, symBinAddr: 0x3DE48, symSize: 0x74 }
  - { offsetInCU: 0x175035, offset: 0x188308, size: 0x8, addend: 0x0, symName: __ZNKSt3__110__function6__funcIZN7httplib10ClientImpl5send_ERNS2_7RequestERNS2_8ResponseERNS2_5ErrorEEUlRNS2_6StreamEE_NS_9allocatorISC_EEFbSB_EE11target_typeEv, symObjAddr: 0x357A8, symBinAddr: 0x3DEBC, symSize: 0xC }
  - { offsetInCU: 0x1750A2, offset: 0x188375, size: 0x8, addend: 0x0, symName: __ZN7httplib7RequestC2ERKS0_, symObjAddr: 0x3732C, symBinAddr: 0x3FA40, symSize: 0xA54 }
  - { offsetInCU: 0x178646, offset: 0x18B919, size: 0x8, addend: 0x0, symName: __ZN7httplib7RequestaSERKS0_, symObjAddr: 0x35CAC, symBinAddr: 0x3E3C0, symSize: 0x3D8 }
  - { offsetInCU: 0x1791EE, offset: 0x18C4C1, size: 0x8, addend: 0x0, symName: __ZNSt3__16__treeINS_12__value_typeINS_12basic_stringIcNS_11char_traitsIcEENS_9allocatorIcEEEES7_EENS_19__map_value_compareIS7_S8_N7httplib6detail2ciELb1EEENS5_IS8_EEE13__erase_multiIS7_EEmRKT_, symObjAddr: 0x3A928, symBinAddr: 0x4303C, symSize: 0xEC }
  - { offsetInCU: 0x179B3B, offset: 0x18CE0E, size: 0x8, addend: 0x0, symName: __ZNSt3__16__treeINS_12__value_typeINS_12basic_stringIcNS_11char_traitsIcEENS_9allocatorIcEEEES7_EENS_19__map_value_compareIS7_S8_NS_4lessIS7_EELb1EEENS5_IS8_EEE14__assign_multiINS_21__tree_const_iteratorIS8_PNS_11__tree_nodeIS8_PvEElEEEEvT_SM_, symObjAddr: 0x38C30, symBinAddr: 0x41344, symSize: 0x34C }
  - { offsetInCU: 0x17A1EB, offset: 0x18D4BE, size: 0x8, addend: 0x0, symName: __ZNSt3__16__treeINS_12__value_typeINS_12basic_stringIcNS_11char_traitsIcEENS_9allocatorIcEEEEN7httplib17MultipartFormDataEEENS_19__map_value_compareIS7_SA_NS_4lessIS7_EELb1EEENS5_ISA_EEE14__assign_multiINS_21__tree_const_iteratorISA_PNS_11__tree_nodeISA_PvEElEEEEvT_SO_, symObjAddr: 0x39100, symBinAddr: 0x41814, symSize: 0x370 }
  - { offsetInCU: 0x17A8C6, offset: 0x18DB99, size: 0x8, addend: 0x0, symName: __ZNSt3__16vectorINS_4pairIllEENS_9allocatorIS2_EEE18__assign_with_sizeB8ue170006IPS2_S7_EEvT_T0_l, symObjAddr: 0x395F8, symBinAddr: 0x41D0C, symSize: 0x2E0 }
  - { offsetInCU: 0x17B166, offset: 0x18E439, size: 0x8, addend: 0x0, symName: __ZNSt3__16vectorINS_9sub_matchINS_11__wrap_iterIPKcEEEENS_9allocatorIS6_EEE18__assign_with_sizeB8ue170006IPS6_SB_EEvT_T0_l, symObjAddr: 0x398D8, symBinAddr: 0x41FEC, symSize: 0x204 }
  - { offsetInCU: 0x17B18A, offset: 0x18E45D, size: 0x8, addend: 0x0, symName: __ZNSt3__16vectorINS_9sub_matchINS_11__wrap_iterIPKcEEEENS_9allocatorIS6_EEE18__assign_with_sizeB8ue170006IPS6_SB_EEvT_T0_l, symObjAddr: 0x398D8, symBinAddr: 0x41FEC, symSize: 0x204 }
  - { offsetInCU: 0x17BAE1, offset: 0x18EDB4, size: 0x8, addend: 0x0, symName: __ZNSt3__110__function12__value_funcIFbRKN7httplib8ResponseEEE4swapB8ue170006ERS7_, symObjAddr: 0x39ADC, symBinAddr: 0x421F0, symSize: 0x198 }
  - { offsetInCU: 0x17BB05, offset: 0x18EDD8, size: 0x8, addend: 0x0, symName: __ZNSt3__110__function12__value_funcIFbRKN7httplib8ResponseEEE4swapB8ue170006ERS7_, symObjAddr: 0x39ADC, symBinAddr: 0x421F0, symSize: 0x198 }
  - { offsetInCU: 0x17BC3F, offset: 0x18EF12, size: 0x8, addend: 0x0, symName: __ZNSt3__110__function12__value_funcIFbyyEE4swapB8ue170006ERS3_, symObjAddr: 0x39C74, symBinAddr: 0x42388, symSize: 0x198 }
  - { offsetInCU: 0x17BE05, offset: 0x18F0D8, size: 0x8, addend: 0x0, symName: __ZN7httplib10ClientImpl13copy_settingsERKS0_, symObjAddr: 0x3A0B4, symBinAddr: 0x427C8, symSize: 0x29C }
  - { offsetInCU: 0x17C952, offset: 0x18FC25, size: 0x8, addend: 0x0, symName: __ZNSt3__16__treeINS_12__value_typeINS_12basic_stringIcNS_11char_traitsIcEENS_9allocatorIcEEEES7_EENS_19__map_value_compareIS7_S8_NS_4lessIS7_EELb1EEENS5_IS8_EEE20__emplace_hint_multiIJRKNS_4pairIKS7_S7_EEEEENS_15__tree_iteratorIS8_PNS_11__tree_nodeIS8_PvEElEENS_21__tree_const_iteratorIS8_SP_lEEDpOT_, symObjAddr: 0x3819C, symBinAddr: 0x408B0, symSize: 0xD8 }
  - { offsetInCU: 0x17CCBF, offset: 0x18FF92, size: 0x8, addend: 0x0, symName: __ZNSt3__16__treeINS_12__value_typeINS_12basic_stringIcNS_11char_traitsIcEENS_9allocatorIcEEEEN7httplib17MultipartFormDataEEENS_19__map_value_compareIS7_SA_NS_4lessIS7_EELb1EEENS5_ISA_EEE20__emplace_hint_multiIJRKNS_4pairIKS7_S9_EEEEENS_15__tree_iteratorISA_PNS_11__tree_nodeISA_PvEElEENS_21__tree_const_iteratorISA_SR_lEEDpOT_, symObjAddr: 0x384B0, symBinAddr: 0x40BC4, symSize: 0xAC }
  - { offsetInCU: 0x17CEBF, offset: 0x190192, size: 0x8, addend: 0x0, symName: __ZNKSt3__16vectorINS_4pairIllEENS_9allocatorIS2_EEE20__throw_length_errorB8ue170006Ev, symObjAddr: 0x38C1C, symBinAddr: 0x41330, symSize: 0x14 }
  - { offsetInCU: 0x17CEE8, offset: 0x1901BB, size: 0x8, addend: 0x0, symName: __ZNSt3__16__treeINS_12__value_typeINS_12basic_stringIcNS_11char_traitsIcEENS_9allocatorIcEEEES7_EENS_19__map_value_compareIS7_S8_NS_4lessIS7_EELb1EEENS5_IS8_EEE14__assign_multiINS_21__tree_const_iteratorIS8_PNS_11__tree_nodeIS8_PvEElEEEEvT_SM_, symObjAddr: 0x38C30, symBinAddr: 0x41344, symSize: 0x34C }
  - { offsetInCU: 0x17CEF4, offset: 0x1901C7, size: 0x8, addend: 0x0, symName: __ZNSt3__16__treeINS_12__value_typeINS_12basic_stringIcNS_11char_traitsIcEENS_9allocatorIcEEEES7_EENS_19__map_value_compareIS7_S8_N7httplib6detail2ciELb1EEENS5_IS8_EEE11__find_leafENS_21__tree_const_iteratorIS8_PNS_11__tree_nodeIS8_PvEElEERPNS_15__tree_end_nodeIPNS_16__tree_node_baseISI_EEEERKS7_, symObjAddr: 0x37E58, symBinAddr: 0x4056C, symSize: 0x23C }
  - { offsetInCU: 0x17D50C, offset: 0x1907DF, size: 0x8, addend: 0x0, symName: __ZNSt3__16__treeINS_12__value_typeINS_12basic_stringIcNS_11char_traitsIcEENS_9allocatorIcEEEES7_EENS_19__map_value_compareIS7_S8_N7httplib6detail2ciELb1EEENS5_IS8_EEE15__find_leaf_lowERPNS_15__tree_end_nodeIPNS_16__tree_node_baseIPvEEEERKS7_, symObjAddr: 0x38094, symBinAddr: 0x407A8, symSize: 0x108 }
  - { offsetInCU: 0x17D823, offset: 0x190AF6, size: 0x8, addend: 0x0, symName: __ZNSt3__16__treeINS_12__value_typeINS_12basic_stringIcNS_11char_traitsIcEENS_9allocatorIcEEEES7_EENS_19__map_value_compareIS7_S8_NS_4lessIS7_EELb1EEENS5_IS8_EEE11__find_leafENS_21__tree_const_iteratorIS8_PNS_11__tree_nodeIS8_PvEElEERPNS_15__tree_end_nodeIPNS_16__tree_node_baseISH_EEEERKS7_, symObjAddr: 0x38274, symBinAddr: 0x40988, symSize: 0x23C }
  - { offsetInCU: 0x17E139, offset: 0x19140C, size: 0x8, addend: 0x0, symName: __ZNSt3__16__treeINS_12__value_typeINS_12basic_stringIcNS_11char_traitsIcEENS_9allocatorIcEEEEN7httplib17MultipartFormDataEEENS_19__map_value_compareIS7_SA_NS_4lessIS7_EELb1EEENS5_ISA_EEE16__construct_nodeIJRKNS_4pairIKS7_S9_EEEEENS_10unique_ptrINS_11__tree_nodeISA_PvEENS_22__tree_node_destructorINS5_ISQ_EEEEEEDpOT_, symObjAddr: 0x3855C, symBinAddr: 0x40C70, symSize: 0x118 }
  - { offsetInCU: 0x17E965, offset: 0x191C38, size: 0x8, addend: 0x0, symName: __ZNSt3__16__treeINS_12__value_typeINS_12basic_stringIcNS_11char_traitsIcEENS_9allocatorIcEEEEN7httplib17MultipartFormDataEEENS_19__map_value_compareIS7_SA_NS_4lessIS7_EELb1EEENS5_ISA_EEE11__find_leafENS_21__tree_const_iteratorISA_PNS_11__tree_nodeISA_PvEElEERPNS_15__tree_end_nodeIPNS_16__tree_node_baseISJ_EEEERKS7_, symObjAddr: 0x38674, symBinAddr: 0x40D88, symSize: 0x23C }
  - { offsetInCU: 0x17F0CB, offset: 0x19239E, size: 0x8, addend: 0x0, symName: __ZNSt3__122__tree_node_destructorINS_9allocatorINS_11__tree_nodeINS_12__value_typeINS_12basic_stringIcNS_11char_traitsIcEENS1_IcEEEEN7httplib17MultipartFormDataEEEPvEEEEEclB8ue170006EPSD_, symObjAddr: 0x38B64, symBinAddr: 0x41278, symSize: 0xB8 }
  - { offsetInCU: 0x17FA8B, offset: 0x192D5E, size: 0x8, addend: 0x0, symName: __ZN7httplib17MultipartFormDataC2ERKS0_, symObjAddr: 0x388B0, symBinAddr: 0x40FC4, symSize: 0x2B4 }
  - { offsetInCU: 0x180F96, offset: 0x194269, size: 0x8, addend: 0x0, symName: __ZNSt3__16__treeINS_12__value_typeINS_12basic_stringIcNS_11char_traitsIcEENS_9allocatorIcEEEES7_EENS_19__map_value_compareIS7_S8_NS_4lessIS7_EELb1EEENS5_IS8_EEE15__emplace_multiIJRKNS_4pairIKS7_S7_EEEEENS_15__tree_iteratorIS8_PNS_11__tree_nodeIS8_PvEElEEDpOT_, symObjAddr: 0x38FD0, symBinAddr: 0x416E4, symSize: 0x130 }
  - { offsetInCU: 0x181493, offset: 0x194766, size: 0x8, addend: 0x0, symName: __ZNSt3__16__treeINS_12__value_typeINS_12basic_stringIcNS_11char_traitsIcEENS_9allocatorIcEEEES7_EENS_19__map_value_compareIS7_S8_NS_4lessIS7_EELb1EEENS5_IS8_EEE18_DetachedTreeCacheD1B8ue170006Ev, symObjAddr: 0x38F7C, symBinAddr: 0x41690, symSize: 0x54 }
  - { offsetInCU: 0x181711, offset: 0x1949E4, size: 0x8, addend: 0x0, symName: __ZNSt3__16__treeINS_12__value_typeINS_12basic_stringIcNS_11char_traitsIcEENS_9allocatorIcEEEEN7httplib17MultipartFormDataEEENS_19__map_value_compareIS7_SA_NS_4lessIS7_EELb1EEENS5_ISA_EEE15__emplace_multiIJRKNS_4pairIKS7_S9_EEEEENS_15__tree_iteratorISA_PNS_11__tree_nodeISA_PvEElEEDpOT_, symObjAddr: 0x394C4, symBinAddr: 0x41BD8, symSize: 0x134 }
  - { offsetInCU: 0x181A17, offset: 0x194CEA, size: 0x8, addend: 0x0, symName: __ZNSt3__16__treeINS_12__value_typeINS_12basic_stringIcNS_11char_traitsIcEENS_9allocatorIcEEEEN7httplib17MultipartFormDataEEENS_19__map_value_compareIS7_SA_NS_4lessIS7_EELb1EEENS5_ISA_EEE18_DetachedTreeCacheD1B8ue170006Ev, symObjAddr: 0x39470, symBinAddr: 0x41B84, symSize: 0x54 }
  - { offsetInCU: 0x181DCC, offset: 0x19509F, size: 0x8, addend: 0x0, symName: __ZNSt3__110__function12__value_funcIFviEE4swapB8ue170006ERS3_, symObjAddr: 0x3A5F8, symBinAddr: 0x42D0C, symSize: 0x198 }
  - { offsetInCU: 0x181F06, offset: 0x1951D9, size: 0x8, addend: 0x0, symName: __ZNSt3__110__function12__value_funcIFvRKN7httplib7RequestERKNS2_8ResponseEEE4swapB8ue170006ERSA_, symObjAddr: 0x3A790, symBinAddr: 0x42EA4, symSize: 0x198 }
  - { offsetInCU: 0x1820DB, offset: 0x1953AE, size: 0x8, addend: 0x0, symName: __ZNSt3__16__treeINS_12__value_typeINS_12basic_stringIcNS_11char_traitsIcEENS_9allocatorIcEEEES7_EENS_19__map_value_compareIS7_S8_N7httplib6detail2ciELb1EEENS5_IS8_EEE19__equal_range_multiIS7_EENS_4pairINS_15__tree_iteratorIS8_PNS_11__tree_nodeIS8_PvEElEESN_EERKT_, symObjAddr: 0x3AA14, symBinAddr: 0x43128, symSize: 0x320 }
  - { offsetInCU: 0x182D61, offset: 0x196034, size: 0x8, addend: 0x0, symName: '__ZNSt3__110__function6__funcIZN7aiutils11FileFetcher27downloadRemoteFileAndVerifyENS_12basic_stringIcNS_11char_traitsIcEENS_9allocatorIcEEEES9_jE3$_0NS7_ISA_EEFbPKcmEED1Ev', symObjAddr: 0x3B600, symBinAddr: 0x43D14, symSize: 0x4 }
  - { offsetInCU: 0x182D8D, offset: 0x196060, size: 0x8, addend: 0x0, symName: '__ZNSt3__110__function6__funcIZN7aiutils11FileFetcher27downloadRemoteFileAndVerifyENS_12basic_stringIcNS_11char_traitsIcEENS_9allocatorIcEEEES9_jE3$_0NS7_ISA_EEFbPKcmEED0Ev', symObjAddr: 0x3B604, symBinAddr: 0x43D18, symSize: 0x4 }
  - { offsetInCU: 0x182E43, offset: 0x196116, size: 0x8, addend: 0x0, symName: '__ZNKSt3__110__function6__funcIZN7aiutils11FileFetcher27downloadRemoteFileAndVerifyENS_12basic_stringIcNS_11char_traitsIcEENS_9allocatorIcEEEES9_jE3$_0NS7_ISA_EEFbPKcmEE7__cloneEv', symObjAddr: 0x3B608, symBinAddr: 0x43D1C, symSize: 0x34 }
  - { offsetInCU: 0x182F33, offset: 0x196206, size: 0x8, addend: 0x0, symName: '__ZNKSt3__110__function6__funcIZN7aiutils11FileFetcher27downloadRemoteFileAndVerifyENS_12basic_stringIcNS_11char_traitsIcEENS_9allocatorIcEEEES9_jE3$_0NS7_ISA_EEFbPKcmEE7__cloneEPNS0_6__baseISE_EE', symObjAddr: 0x3B63C, symBinAddr: 0x43D50, symSize: 0x14 }
  - { offsetInCU: 0x182F9A, offset: 0x19626D, size: 0x8, addend: 0x0, symName: '__ZNSt3__110__function6__funcIZN7aiutils11FileFetcher27downloadRemoteFileAndVerifyENS_12basic_stringIcNS_11char_traitsIcEENS_9allocatorIcEEEES9_jE3$_0NS7_ISA_EEFbPKcmEE7destroyEv', symObjAddr: 0x3B650, symBinAddr: 0x43D64, symSize: 0x4 }
  - { offsetInCU: 0x182FEB, offset: 0x1962BE, size: 0x8, addend: 0x0, symName: '__ZNSt3__110__function6__funcIZN7aiutils11FileFetcher27downloadRemoteFileAndVerifyENS_12basic_stringIcNS_11char_traitsIcEENS_9allocatorIcEEEES9_jE3$_0NS7_ISA_EEFbPKcmEE18destroy_deallocateEv', symObjAddr: 0x3B654, symBinAddr: 0x43D68, symSize: 0x4 }
  - { offsetInCU: 0x183020, offset: 0x1962F3, size: 0x8, addend: 0x0, symName: '__ZNSt3__110__function6__funcIZN7aiutils11FileFetcher27downloadRemoteFileAndVerifyENS_12basic_stringIcNS_11char_traitsIcEENS_9allocatorIcEEEES9_jE3$_0NS7_ISA_EEFbPKcmEE18destroy_deallocateEv', symObjAddr: 0x3B654, symBinAddr: 0x43D68, symSize: 0x4 }
  - { offsetInCU: 0x183045, offset: 0x196318, size: 0x8, addend: 0x0, symName: '__ZNSt3__110__function6__funcIZN7aiutils11FileFetcher27downloadRemoteFileAndVerifyENS_12basic_stringIcNS_11char_traitsIcEENS_9allocatorIcEEEES9_jE3$_0NS7_ISA_EEFbPKcmEE18destroy_deallocateEv', symObjAddr: 0x3B654, symBinAddr: 0x43D68, symSize: 0x4 }
  - { offsetInCU: 0x183074, offset: 0x196347, size: 0x8, addend: 0x0, symName: '__ZNSt3__110__function6__funcIZN7aiutils11FileFetcher27downloadRemoteFileAndVerifyENS_12basic_stringIcNS_11char_traitsIcEENS_9allocatorIcEEEES9_jE3$_0NS7_ISA_EEFbPKcmEE18destroy_deallocateEv', symObjAddr: 0x3B654, symBinAddr: 0x43D68, symSize: 0x4 }
  - { offsetInCU: 0x18309D, offset: 0x196370, size: 0x8, addend: 0x0, symName: '__ZNSt3__110__function6__funcIZN7aiutils11FileFetcher27downloadRemoteFileAndVerifyENS_12basic_stringIcNS_11char_traitsIcEENS_9allocatorIcEEEES9_jE3$_0NS7_ISA_EEFbPKcmEE18destroy_deallocateEv', symObjAddr: 0x3B654, symBinAddr: 0x43D68, symSize: 0x4 }
  - { offsetInCU: 0x183580, offset: 0x196853, size: 0x8, addend: 0x0, symName: '__ZNSt3__110__function6__funcIZN7aiutils11FileFetcher27downloadRemoteFileAndVerifyENS_12basic_stringIcNS_11char_traitsIcEENS_9allocatorIcEEEES9_jE3$_0NS7_ISA_EEFbPKcmEEclEOSD_Om', symObjAddr: 0x3B658, symBinAddr: 0x43D6C, symSize: 0x224 }
  - { offsetInCU: 0x183BC8, offset: 0x196E9B, size: 0x8, addend: 0x0, symName: '__ZNKSt3__110__function6__funcIZN7aiutils11FileFetcher27downloadRemoteFileAndVerifyENS_12basic_stringIcNS_11char_traitsIcEENS_9allocatorIcEEEES9_jE3$_0NS7_ISA_EEFbPKcmEE6targetERKSt9type_info', symObjAddr: 0x3B87C, symBinAddr: 0x43F90, symSize: 0x60 }
  - { offsetInCU: 0x183BDA, offset: 0x196EAD, size: 0x8, addend: 0x0, symName: '__ZNKSt3__110__function6__funcIZN7aiutils11FileFetcher27downloadRemoteFileAndVerifyENS_12basic_stringIcNS_11char_traitsIcEENS_9allocatorIcEEEES9_jE3$_0NS7_ISA_EEFbPKcmEE6targetERKSt9type_info', symObjAddr: 0x3B87C, symBinAddr: 0x43F90, symSize: 0x60 }
  - { offsetInCU: 0x183C65, offset: 0x196F38, size: 0x8, addend: 0x0, symName: '__ZNKSt3__110__function6__funcIZN7aiutils11FileFetcher27downloadRemoteFileAndVerifyENS_12basic_stringIcNS_11char_traitsIcEENS_9allocatorIcEEEES9_jE3$_0NS7_ISA_EEFbPKcmEE11target_typeEv', symObjAddr: 0x3B8DC, symBinAddr: 0x43FF0, symSize: 0xC }
  - { offsetInCU: 0x39, offset: 0x19784D, size: 0x8, addend: 0x0, symName: __ZN8aiengine14DeviceSelector17__pDeviceSelectorE, symObjAddr: 0x1494D8, symBinAddr: 0x85138, symSize: 0x0 }
  - { offsetInCU: 0x119E3, offset: 0x1A91F7, size: 0x8, addend: 0x0, symName: __ZNSt3__19transformB8ue170006INS_20__map_const_iteratorINS_21__tree_const_iteratorINS_12__value_typeINS_12basic_stringIcNS_11char_traitsIcEENS_9allocatorIcEEEEN8nlohmann16json_abi_v3_11_210basic_jsonINS_3mapENS_6vectorES9_bxydS7_NSB_14adl_serializerENSE_IhNS7_IhEEEEEEEEPNS_11__tree_nodeISJ_PvEElEEEENS_15insert_iteratorINSD_IS9_SI_NS_4lessIS9_EENS7_INS_4pairIKS9_SI_EEEEEEEEZNSB_6detail9from_jsonISI_SX_Li0EEEvRKT_RT0_EUlRKSV_E_EES14_S11_S11_S14_T1_, symObjAddr: 0x7380, symBinAddr: 0x47A40, symSize: 0x198 }
  - { offsetInCU: 0x15FCC, offset: 0x1AD7E0, size: 0x8, addend: 0x0, symName: __ZN8nlohmann16json_abi_v3_11_26detail9from_jsonINS0_10basic_jsonINSt3__13mapENS4_6vectorENS4_12basic_stringIcNS4_11char_traitsIcEENS4_9allocatorIcEEEEbxydSA_NS0_14adl_serializerENS6_IhNSA_IhEEEEEENS5_ISC_SG_NS4_4lessISC_EENSA_INS4_4pairIKSC_SG_EEEEEELi0EEEvRKT_RT0_, symObjAddr: 0x7224, symBinAddr: 0x478E4, symSize: 0x15C }
  - { offsetInCU: 0x166CA, offset: 0x1ADEDE, size: 0x8, addend: 0x0, symName: __ZN8nlohmann16json_abi_v3_11_26detail9from_jsonINS0_10basic_jsonINSt3__13mapENS4_6vectorENS4_12basic_stringIcNS4_11char_traitsIcEENS4_9allocatorIcEEEEbxydSA_NS0_14adl_serializerENS6_IhNSA_IhEEEEEEfLi0EEEvRKT_RT0_, symObjAddr: 0x70B4, symBinAddr: 0x47774, symSize: 0x170 }
  - { offsetInCU: 0x1AB10, offset: 0x1B2324, size: 0x8, addend: 0x0, symName: __ZNSt3__110unique_ptrIN8aiengine14DeviceSelectorENS_14default_deleteIS2_EEED1B8ue170006Ev, symObjAddr: 0x0, symBinAddr: 0x4400C, symSize: 0x38 }
  - { offsetInCU: 0x1B376, offset: 0x1B2B8A, size: 0x8, addend: 0x0, symName: __ZN8aiengine14DeviceSelector17availableBackendsERKNSt3__13mapINS1_12basic_stringIcNS1_11char_traitsIcEENS1_9allocatorIcEEEEN8nlohmann16json_abi_v3_11_210basic_jsonIS2_NS1_6vectorES8_bxydS6_NSA_14adl_serializerENSC_IhNS6_IhEEEEEENS1_4lessIS8_EENS6_INS1_4pairIKS8_SG_EEEEEEif, symObjAddr: 0x38, symBinAddr: 0x44044, symSize: 0x474 }
  - { offsetInCU: 0x1C1FC, offset: 0x1B3A10, size: 0x8, addend: 0x0, symName: __ZN8aiengine14DeviceSelector16deviceCapabilityEi, symObjAddr: 0x4AC, symBinAddr: 0x444B8, symSize: 0x5A4 }
  - { offsetInCU: 0x1E65E, offset: 0x1B5E72, size: 0x8, addend: 0x0, symName: __ZNK8nlohmann16json_abi_v3_11_210basic_jsonINSt3__13mapENS2_6vectorENS2_12basic_stringIcNS2_11char_traitsIcEENS2_9allocatorIcEEEEbxydS8_NS0_14adl_serializerENS4_IhNS8_IhEEEEEixIKcEERKSE_PT_, symObjAddr: 0xA50, symBinAddr: 0x44A5C, symSize: 0xE4 }
  - { offsetInCU: 0x1E670, offset: 0x1B5E84, size: 0x8, addend: 0x0, symName: __ZNK8nlohmann16json_abi_v3_11_210basic_jsonINSt3__13mapENS2_6vectorENS2_12basic_stringIcNS2_11char_traitsIcEENS2_9allocatorIcEEEEbxydS8_NS0_14adl_serializerENS4_IhNS8_IhEEEEEixIKcEERKSE_PT_, symObjAddr: 0xA50, symBinAddr: 0x44A5C, symSize: 0xE4 }
  - { offsetInCU: 0x1ECF7, offset: 0x1B650B, size: 0x8, addend: 0x0, symName: __ZNK8nlohmann16json_abi_v3_11_26detail9iter_implIKNS0_10basic_jsonINSt3__13mapENS4_6vectorENS4_12basic_stringIcNS4_11char_traitsIcEENS4_9allocatorIcEEEEbxydSA_NS0_14adl_serializerENS6_IhNSA_IhEEEEEEEdeEv, symObjAddr: 0xB34, symBinAddr: 0x44B40, symSize: 0x170 }
  - { offsetInCU: 0x20241, offset: 0x1B7A55, size: 0x8, addend: 0x0, symName: __ZNK8nlohmann16json_abi_v3_11_210basic_jsonINSt3__13mapENS2_6vectorENS2_12basic_stringIcNS2_11char_traitsIcEENS2_9allocatorIcEEEEbxydS8_NS0_14adl_serializerENS4_IhNS8_IhEEEEEixERKSA_, symObjAddr: 0x21F0, symBinAddr: 0x461FC, symSize: 0x1BC }
  - { offsetInCU: 0x20A5E, offset: 0x1B8272, size: 0x8, addend: 0x0, symName: __ZN8aiengine14DeviceSelector16preferredBackendEiif, symObjAddr: 0xCA4, symBinAddr: 0x44CB0, symSize: 0x144 }
  - { offsetInCU: 0x21CB5, offset: 0x1B94C9, size: 0x8, addend: 0x0, symName: __ZN8aiengine14DeviceSelector19preferredModelFilesERKNSt3__13mapINS1_12basic_stringIcNS1_11char_traitsIcEENS1_9allocatorIcEEEEN8nlohmann16json_abi_v3_11_210basic_jsonIS2_NS1_6vectorES8_bxydS6_NSA_14adl_serializerENSC_IhNS6_IhEEEEEENS1_4lessIS8_EENS6_INS1_4pairIKS8_SG_EEEEEEi, symObjAddr: 0xDE8, symBinAddr: 0x44DF4, symSize: 0x1050 }
  - { offsetInCU: 0x26C60, offset: 0x1BE474, size: 0x8, addend: 0x0, symName: __ZN8aiengine14DeviceSelector15blocksForDeviceEi, symObjAddr: 0x1E38, symBinAddr: 0x45E44, symSize: 0x1C4 }
  - { offsetInCU: 0x2703B, offset: 0x1BE84F, size: 0x8, addend: 0x0, symName: __ZNK8nlohmann16json_abi_v3_11_210basic_jsonINSt3__13mapENS2_6vectorENS2_12basic_stringIcNS2_11char_traitsIcEENS2_9allocatorIcEEEEbxydS8_NS0_14adl_serializerENS4_IhNS8_IhEEEEE5valueIfRA17_KcfLi0EEET1_OT0_OT_, symObjAddr: 0x1FFC, symBinAddr: 0x46008, symSize: 0x1F4 }
  - { offsetInCU: 0x277D4, offset: 0x1BEFE8, size: 0x8, addend: 0x0, symName: __ZNSt3__16__treeINS_12__value_typeINS_12basic_stringIcNS_11char_traitsIcEENS_9allocatorIcEEEEN8nlohmann16json_abi_v3_11_210basic_jsonINS_3mapENS_6vectorES7_bxydS5_NS9_14adl_serializerENSC_IhNS5_IhEEEEEEEENS_19__map_value_compareIS7_SH_NS_4lessIS7_EELb1EEENS5_ISH_EEE7destroyEPNS_11__tree_nodeISH_PvEE, symObjAddr: 0x6410, symBinAddr: 0x4764C, symSize: 0x78 }
  - { offsetInCU: 0x27D09, offset: 0x1BF51D, size: 0x8, addend: 0x0, symName: __ZNSt3__16__treeINS_12basic_stringIcNS_11char_traitsIcEENS_9allocatorIcEEEENS_4lessIS6_EENS4_IS6_EEE25__emplace_unique_key_argsIS6_JRKS6_EEENS_4pairINS_15__tree_iteratorIS6_PNS_11__tree_nodeIS6_PvEElEEbEERKT_DpOT0_, symObjAddr: 0x8730, symBinAddr: 0x481A8, symSize: 0x1F0 }
  - { offsetInCU: 0x28646, offset: 0x1BFE5A, size: 0x8, addend: 0x0, symName: __ZNSt3__16__treeINS_12basic_stringIcNS_11char_traitsIcEENS_9allocatorIcEEEENS_4lessIS6_EENS4_IS6_EEE7destroyEPNS_11__tree_nodeIS6_PvEE, symObjAddr: 0x6ED0, symBinAddr: 0x47714, symSize: 0x60 }
  - { offsetInCU: 0x28A27, offset: 0x1C023B, size: 0x8, addend: 0x0, symName: __ZNK7aiutils10DeviceInfo7isIntelEv, symObjAddr: 0x4C88, symBinAddr: 0x4747C, symSize: 0x1D0 }
  - { offsetInCU: 0x296BF, offset: 0x1C0ED3, size: 0x8, addend: 0x0, symName: __ZN7aiutils10DeviceInfoD1Ev, symObjAddr: 0x4B48, symBinAddr: 0x47424, symSize: 0x58 }
  - { offsetInCU: 0x2A0CC, offset: 0x1C18E0, size: 0x8, addend: 0x0, symName: __ZN8aiengine14DeviceSelector13forceBackendsEi, symObjAddr: 0x23AC, symBinAddr: 0x463B8, symSize: 0x8 }
  - { offsetInCU: 0x2ABA7, offset: 0x1C23BB, size: 0x8, addend: 0x0, symName: __ZN8aiengine14DeviceSelector22ComputeDeviceInstancesEiiNS_18MODEL_BACKEND_TYPEE, symObjAddr: 0x23B4, symBinAddr: 0x463C0, symSize: 0x1064 }
  - { offsetInCU: 0x2F46D, offset: 0x1C6C81, size: 0x8, addend: 0x0, symName: __ZNKSt3__16vectorINS_4pairIiiEENS_9allocatorIS2_EEE20__throw_length_errorB8ue170006Ev, symObjAddr: 0x8920, symBinAddr: 0x48398, symSize: 0x14 }
  - { offsetInCU: 0x2F497, offset: 0x1C6CAB, size: 0x8, addend: 0x0, symName: __ZNSt3__16vectorIN7aiutils10DeviceInfoENS_9allocatorIS2_EEE16__init_with_sizeB8ue170006IPS2_S7_EEvT_T0_m.cold.1, symObjAddr: 0x8934, symBinAddr: 0x6C584, symSize: 0x58 }
  - { offsetInCU: 0x31784, offset: 0x1C8F98, size: 0x8, addend: 0x0, symName: __ZNSt3__16vectorIN7aiutils10DeviceInfoENS_9allocatorIS2_EEE16__init_with_sizeB8ue170006IPS2_S7_EEvT_T0_m.cold.1, symObjAddr: 0x8934, symBinAddr: 0x6C584, symSize: 0x58 }
  - { offsetInCU: 0x31CA6, offset: 0x1C94BA, size: 0x8, addend: 0x0, symName: __ZN7aiutils10DeviceInfoC2ERKS0_.cold.1, symObjAddr: 0x898C, symBinAddr: 0x6C5DC, symSize: 0x14 }
  - { offsetInCU: 0x31CC1, offset: 0x1C94D5, size: 0x8, addend: 0x0, symName: __ZN7aiutils10DeviceInfoC2ERKS0_.cold.1, symObjAddr: 0x898C, symBinAddr: 0x6C5DC, symSize: 0x14 }
  - { offsetInCU: 0x31CD6, offset: 0x1C94EA, size: 0x8, addend: 0x0, symName: __ZN7aiutils10DeviceInfoC2ERKS0_.cold.1, symObjAddr: 0x898C, symBinAddr: 0x6C5DC, symSize: 0x14 }
  - { offsetInCU: 0x31CED, offset: 0x1C9501, size: 0x8, addend: 0x0, symName: __ZN7aiutils10DeviceInfoC2ERKS0_.cold.1, symObjAddr: 0x898C, symBinAddr: 0x6C5DC, symSize: 0x14 }
  - { offsetInCU: 0x33E15, offset: 0x1CB629, size: 0x8, addend: 0x0, symName: __ZNSt3__14pairIKNS_12basic_stringIcNS_11char_traitsIcEENS_9allocatorIcEEEEN8nlohmann16json_abi_v3_11_210basic_jsonINS_3mapENS_6vectorES6_bxydS4_NS9_14adl_serializerENSC_IhNS4_IhEEEEEEED1Ev, symObjAddr: 0x6488, symBinAddr: 0x476C4, symSize: 0x50 }
  - { offsetInCU: 0x35FD4, offset: 0x1CD7E8, size: 0x8, addend: 0x0, symName: __ZNSt3__115insert_iteratorINS_3mapINS_12basic_stringIcNS_11char_traitsIcEENS_9allocatorIcEEEEN8nlohmann16json_abi_v3_11_210basic_jsonIS1_NS_6vectorES7_bxydS5_NS9_14adl_serializerENSB_IhNS5_IhEEEEEENS_4lessIS7_EENS5_INS_4pairIKS7_SF_EEEEEEEaSB8ue170006EOSK_, symObjAddr: 0x7518, symBinAddr: 0x47BD8, symSize: 0xEC }
  - { offsetInCU: 0x363B0, offset: 0x1CDBC4, size: 0x8, addend: 0x0, symName: __ZNSt3__16__treeINS_12__value_typeINS_12basic_stringIcNS_11char_traitsIcEENS_9allocatorIcEEEEN8nlohmann16json_abi_v3_11_210basic_jsonINS_3mapENS_6vectorES7_bxydS5_NS9_14adl_serializerENSC_IhNS5_IhEEEEEEEENS_19__map_value_compareIS7_SH_NS_4lessIS7_EELb1EEENS5_ISH_EEE12__find_equalIS7_EERPNS_16__tree_node_baseIPvEENS_21__tree_const_iteratorISH_PNS_11__tree_nodeISH_SQ_EElEERPNS_15__tree_end_nodeISS_EEST_RKT_, symObjAddr: 0x81C8, symBinAddr: 0x47CC4, symSize: 0x3F8 }
  - { offsetInCU: 0x36F9A, offset: 0x1CE7AE, size: 0x8, addend: 0x0, symName: __ZNSt3__16__treeINS_12__value_typeINS_12basic_stringIcNS_11char_traitsIcEENS_9allocatorIcEEEEN8nlohmann16json_abi_v3_11_210basic_jsonINS_3mapENS_6vectorES7_bxydS5_NS9_14adl_serializerENSC_IhNS5_IhEEEEEEEENS_19__map_value_compareIS7_SH_NS_4lessIS7_EELb1EEENS5_ISH_EEE16__construct_nodeIJNS_4pairIKS7_SG_EEEEENS_10unique_ptrINS_11__tree_nodeISH_PvEENS_22__tree_node_destructorINS5_ISV_EEEEEEDpOT_, symObjAddr: 0x85C0, symBinAddr: 0x480BC, symSize: 0xEC }
  - { offsetInCU: 0x391EE, offset: 0x1D0A02, size: 0x8, addend: 0x0, symName: __ZNSt3__16__treeINS_12__value_typeINS_12basic_stringIcNS_11char_traitsIcEENS_9allocatorIcEEEEN8nlohmann16json_abi_v3_11_210basic_jsonINS_3mapENS_6vectorES7_bxydS5_NS9_14adl_serializerENSC_IhNS5_IhEEEEEEEENS_19__map_value_compareIS7_SH_NS_4lessIS7_EELb1EEENS5_ISH_EEE12__find_equalIS7_EERPNS_16__tree_node_baseIPvEENS_21__tree_const_iteratorISH_PNS_11__tree_nodeISH_SQ_EElEERPNS_15__tree_end_nodeISS_EEST_RKT_, symObjAddr: 0x81C8, symBinAddr: 0x47CC4, symSize: 0x3F8 }
  - { offsetInCU: 0x39, offset: 0x1D17ED, size: 0x8, addend: 0x0, symName: __ZN8aiengine6Crypto16BASE64_URL_CHARSE, symObjAddr: 0x23C98, symBinAddr: 0x85010, symSize: 0x0 }
  - { offsetInCU: 0xE6A8, offset: 0x1DFE5C, size: 0x8, addend: 0x0, symName: __ZNSt3__14__fs10filesystemlsB8ue170006IcNS_11char_traitsIcEEEENS_9enable_ifIXaasr7is_sameIT_cEE5valuesr7is_sameIT0_S4_EE5valueERNS_13basic_ostreamIS6_S7_EEE4typeESA_RKNS1_4pathE, symObjAddr: 0x4B60, symBinAddr: 0x4C628, symSize: 0x48 }
  - { offsetInCU: 0x1D3E8, offset: 0x1EEB9C, size: 0x8, addend: 0x0, symName: __ZNSt3__12wsB8ue170006IcNS_11char_traitsIcEEEERNS_13basic_istreamIT_T0_EES7_, symObjAddr: 0x17984, symBinAddr: 0x57978, symSize: 0x188 }
  - { offsetInCU: 0x26FDE, offset: 0x1F8792, size: 0x8, addend: 0x0, symName: __ZN8aiengine12ModelManager15__pModelManagerE, symObjAddr: 0x2BCAC8, symBinAddr: 0x85140, symSize: 0x0 }
  - { offsetInCU: 0x273D6, offset: 0x1F8B8A, size: 0x8, addend: 0x0, symName: __ZN7aiutils8strutils9parseDateERKNSt3__112basic_stringIcNS1_11char_traitsIcEENS1_9allocatorIcEEEES9_, symObjAddr: 0x17EC, symBinAddr: 0x49A04, symSize: 0x23C }
  - { offsetInCU: 0x27F6C, offset: 0x1F9720, size: 0x8, addend: 0x0, symName: __ZN7aiutils8strutils10replaceAllENSt3__112basic_stringIcNS1_11char_traitsIcEENS1_9allocatorIcEEEERKS7_S9_, symObjAddr: 0x2F48, symBinAddr: 0x4B160, symSize: 0x158 }
  - { offsetInCU: 0x29433, offset: 0x1FABE7, size: 0x8, addend: 0x0, symName: __ZN4date6detail4readIcNSt3__111char_traitsIcEEJRcRKcEEEvRNS2_13basic_istreamIT_T0_EEiDpOT1_, symObjAddr: 0x17FF0, symBinAddr: 0x57FE4, symSize: 0x1A8 }
  - { offsetInCU: 0x2974A, offset: 0x1FAEFE, size: 0x8, addend: 0x0, symName: __ZN4date6detail11read_signedIcNSt3__111char_traitsIcEEEEiRNS2_13basic_istreamIT_T0_EEjj, symObjAddr: 0x18268, symBinAddr: 0x5825C, symSize: 0x138 }
  - { offsetInCU: 0x29910, offset: 0x1FB0C4, size: 0x8, addend: 0x0, symName: __ZN4date6detail4readIcNSt3__111char_traitsIcEEJEEEvRNS2_13basic_istreamIT_T0_EENS0_2ruEDpOT1_, symObjAddr: 0x17570, symBinAddr: 0x57564, symSize: 0xEC }
  - { offsetInCU: 0x299EA, offset: 0x1FB19E, size: 0x8, addend: 0x0, symName: __ZN4date6detail16read_long_doubleIcNSt3__111char_traitsIcEEEEeRNS2_13basic_istreamIT_T0_EEjj, symObjAddr: 0x18D58, symBinAddr: 0x58D4C, symSize: 0x17C }
  - { offsetInCU: 0x29C1A, offset: 0x1FB3CE, size: 0x8, addend: 0x0, symName: __ZN4date6detail4readIcNSt3__111char_traitsIcEEJcccNS0_2ruEcEEEvRNS2_13basic_istreamIT_T0_EES5_DpOT1_, symObjAddr: 0x1765C, symBinAddr: 0x57650, symSize: 0x198 }
  - { offsetInCU: 0x29EA9, offset: 0x1FB65D, size: 0x8, addend: 0x0, symName: __ZN4date6detail4readIcNSt3__111char_traitsIcEEJRKcEEEvRNS2_13basic_istreamIT_T0_EEiDpOT1_, symObjAddr: 0x19130, symBinAddr: 0x59124, symSize: 0x1F8 }
  - { offsetInCU: 0x2A272, offset: 0x1FBA26, size: 0x8, addend: 0x0, symName: __ZN4date6detail4readIcNSt3__111char_traitsIcEEJNS0_2ruEcS5_EEEvRNS2_13basic_istreamIT_T0_EES7_DpOT1_, symObjAddr: 0x18818, symBinAddr: 0x5880C, symSize: 0x180 }
  - { offsetInCU: 0x2A4C1, offset: 0x1FBC75, size: 0x8, addend: 0x0, symName: __ZN4date6detail4readIcNSt3__111char_traitsIcEEJccNS0_2ruEcccNS0_2rsEEEEvRNS2_13basic_istreamIT_T0_EES8_DpOT1_, symObjAddr: 0x183A0, symBinAddr: 0x58394, symSize: 0x110 }
  - { offsetInCU: 0x2A673, offset: 0x1FBE27, size: 0x8, addend: 0x0, symName: __ZN4date6detail4readIcNSt3__111char_traitsIcEEJNS0_2ruEcNS0_3rldEEEEvRNS2_13basic_istreamIT_T0_EES8_DpOT1_, symObjAddr: 0x18ED4, symBinAddr: 0x58EC8, symSize: 0x180 }
  - { offsetInCU: 0x2A8C2, offset: 0x1FC076, size: 0x8, addend: 0x0, symName: __ZN4date6detail11checked_setINSt3__112basic_stringIcNS2_11char_traitsIcEENS2_9allocatorIcEEEEcS5_EEvRT_S9_S9_RNS2_9basic_iosIT0_T1_EE, symObjAddr: 0x177F4, symBinAddr: 0x577E8, symSize: 0x190 }
  - { offsetInCU: 0x2AD1A, offset: 0x1FC4CE, size: 0x8, addend: 0x0, symName: __ZN4date6detail4readIcNSt3__111char_traitsIcEEJRcEEEvRNS2_13basic_istreamIT_T0_EEiDpOT1_, symObjAddr: 0x1949C, symBinAddr: 0x59490, symSize: 0x1F8 }
  - { offsetInCU: 0x2B0E3, offset: 0x1FC897, size: 0x8, addend: 0x0, symName: __ZN4date6detail4readIcNSt3__111char_traitsIcEEJEEEvRNS2_13basic_istreamIT_T0_EEiDpOT1_, symObjAddr: 0x19328, symBinAddr: 0x5931C, symSize: 0x174 }
  - { offsetInCU: 0x2B40A, offset: 0x1FCBBE, size: 0x8, addend: 0x0, symName: __ZN4date6detail4readIcNSt3__111char_traitsIcEEJcNS0_2ruEcEEEvRNS2_13basic_istreamIT_T0_EES7_DpOT1_, symObjAddr: 0x18B08, symBinAddr: 0x58AFC, symSize: 0xE8 }
  - { offsetInCU: 0x2B528, offset: 0x1FCCDC, size: 0x8, addend: 0x0, symName: __ZN4date6detail4readIcNSt3__111char_traitsIcEEJRKcEEEvRNS2_13basic_istreamIT_T0_EES8_DpOT1_, symObjAddr: 0x18198, symBinAddr: 0x5818C, symSize: 0xD0 }
  - { offsetInCU: 0x2B6A0, offset: 0x1FCE54, size: 0x8, addend: 0x0, symName: __ZN4date6detail4readIcNSt3__111char_traitsIcEEJNS0_2ruEcccNS0_2rsEEEEvRNS2_13basic_istreamIT_T0_EES8_DpOT1_, symObjAddr: 0x184B0, symBinAddr: 0x584A4, symSize: 0x1A4 }
  - { offsetInCU: 0x2B9C2, offset: 0x1FD176, size: 0x8, addend: 0x0, symName: __ZN4date6detail4readIcNSt3__111char_traitsIcEEJccNS0_2rsEEEEvRNS2_13basic_istreamIT_T0_EES7_DpOT1_, symObjAddr: 0x18654, symBinAddr: 0x58648, symSize: 0xE8 }
  - { offsetInCU: 0x2BB4F, offset: 0x1FD303, size: 0x8, addend: 0x0, symName: __ZN4date6detail4readIcNSt3__111char_traitsIcEEJNS0_2rsEEEEvRNS2_13basic_istreamIT_T0_EES7_DpOT1_, symObjAddr: 0x1873C, symBinAddr: 0x58730, symSize: 0xDC }
  - { offsetInCU: 0x2BD16, offset: 0x1FD4CA, size: 0x8, addend: 0x0, symName: __ZN4date6detail4readIcNSt3__111char_traitsIcEEJNS0_2ruEEEEvRNS2_13basic_istreamIT_T0_EES7_DpOT1_, symObjAddr: 0x18998, symBinAddr: 0x5898C, symSize: 0x170 }
  - { offsetInCU: 0x2BF7B, offset: 0x1FD72F, size: 0x8, addend: 0x0, symName: __ZN4date6detail4readIcNSt3__111char_traitsIcEEJcEEEvRNS2_13basic_istreamIT_T0_EENS0_2ruEDpOT1_, symObjAddr: 0x18BF0, symBinAddr: 0x58BE4, symSize: 0x168 }
  - { offsetInCU: 0x2C1E6, offset: 0x1FD99A, size: 0x8, addend: 0x0, symName: __ZN4date6detail4readIcNSt3__111char_traitsIcEEJNS0_3rldEEEEvRNS2_13basic_istreamIT_T0_EES7_DpOT1_, symObjAddr: 0x19054, symBinAddr: 0x59048, symSize: 0xDC }
  - { offsetInCU: 0x2C767, offset: 0x1FDF1B, size: 0x8, addend: 0x0, symName: __ZN4date11from_streamINSt3__16chrono8durationIiNS1_5ratioILl86400ELl1EEEEEcNS1_11char_traitsIcEENS1_9allocatorIcEEEERNS1_13basic_istreamIT0_T1_EESF_PKSC_RNS2_10time_pointINS2_12system_clockET_EEPNS1_12basic_stringISC_SD_T2_EEPNS3_IlNS4_ILl60ELl1EEEEE, symObjAddr: 0x12A70, symBinAddr: 0x52A64, symSize: 0x2F0 }
  - { offsetInCU: 0x2D232, offset: 0x1FE9E6, size: 0x8, addend: 0x0, symName: __ZN4date11from_streamIcNSt3__111char_traitsIcEENS1_6chrono8durationIxNS1_5ratioILl1ELl1EEEEENS1_9allocatorIcEEEERNS1_13basic_istreamIT_T0_EESF_PKSC_RNS_6fieldsIT1_EEPNS1_12basic_stringISC_SD_T2_EEPNS5_IlNS6_ILl60ELl1EEEEE, symObjAddr: 0x12D60, symBinAddr: 0x52D54, symSize: 0x4768 }
  - { offsetInCU: 0x39598, offset: 0x20AD4C, size: 0x8, addend: 0x0, symName: __ZNSt3__16vectorIcNS_9allocatorIcEEED1B8ue170006Ev, symObjAddr: 0x0, symBinAddr: 0x483C8, symSize: 0x30 }
  - { offsetInCU: 0x39777, offset: 0x20AF2B, size: 0x8, addend: 0x0, symName: __ZNSt3__110unique_ptrIN8aiengine12ModelManagerENS_14default_deleteIS2_EEED1B8ue170006Ev, symObjAddr: 0x30, symBinAddr: 0x483F8, symSize: 0x38 }
  - { offsetInCU: 0x39D55, offset: 0x20B509, size: 0x8, addend: 0x0, symName: __ZN8aiengine12ModelManagerC2ENSt3__112basic_stringIcNS1_11char_traitsIcEENS1_9allocatorIcEEEEbbS7_S7_, symObjAddr: 0x68, symBinAddr: 0x48430, symSize: 0x59C }
  - { offsetInCU: 0x3C0D5, offset: 0x20D889, size: 0x8, addend: 0x0, symName: __ZN7aiutils11FileFetcherC2ENSt3__112basic_stringIcNS1_11char_traitsIcEENS1_9allocatorIcEEEES7_, symObjAddr: 0x56A0, symBinAddr: 0x4D15C, symSize: 0x2B4 }
  - { offsetInCU: 0x3D7C1, offset: 0x20EF75, size: 0x8, addend: 0x0, symName: __ZN7aiutils6Logger3LogEv, symObjAddr: 0x604, symBinAddr: 0x489CC, symSize: 0x64 }
  - { offsetInCU: 0x3DA6D, offset: 0x20F221, size: 0x8, addend: 0x0, symName: __ZN8aiengine12ModelManagerC1ENSt3__112basic_stringIcNS1_11char_traitsIcEENS1_9allocatorIcEEEEbbS7_S7_, symObjAddr: 0x708, symBinAddr: 0x48A30, symSize: 0x4 }
  - { offsetInCU: 0x3DA7E, offset: 0x20F232, size: 0x8, addend: 0x0, symName: __ZN8aiengine12ModelManagerC1ENSt3__112basic_stringIcNS1_11char_traitsIcEENS1_9allocatorIcEEEEbbS7_S7_, symObjAddr: 0x708, symBinAddr: 0x48A30, symSize: 0x4 }
  - { offsetInCU: 0x3DAFF, offset: 0x20F2B3, size: 0x8, addend: 0x0, symName: __ZN8aiengine12ModelManagerC1ENSt3__112basic_stringIcNS1_11char_traitsIcEENS1_9allocatorIcEEEEbbS7_S7_, symObjAddr: 0x708, symBinAddr: 0x48A30, symSize: 0x4 }
  - { offsetInCU: 0x3E906, offset: 0x2100BA, size: 0x8, addend: 0x0, symName: __ZN8aiengine12ModelManager12isModelValidERN8nlohmann16json_abi_v3_11_210basic_jsonINSt3__13mapENS4_6vectorENS4_12basic_stringIcNS4_11char_traitsIcEENS4_9allocatorIcEEEEbxydSA_NS2_14adl_serializerENS6_IhNSA_IhEEEEEE, symObjAddr: 0x70C, symBinAddr: 0x48A34, symSize: 0xB74 }
  - { offsetInCU: 0x42988, offset: 0x21413C, size: 0x8, addend: 0x0, symName: __ZN8aiengine6CryptoC2ENSt3__112basic_stringIcNS1_11char_traitsIcEENS1_9allocatorIcEEEES7_, symObjAddr: 0x6DD0, symBinAddr: 0x4D410, symSize: 0x254 }
  - { offsetInCU: 0x43A21, offset: 0x2151D5, size: 0x8, addend: 0x0, symName: __ZN8aiengine6Crypto6decodeERKNSt3__112basic_stringIcNS1_11char_traitsIcEENS1_9allocatorIcEEEE, symObjAddr: 0x7194, symBinAddr: 0x4D7D4, symSize: 0x284 }
  - { offsetInCU: 0x4414B, offset: 0x2158FF, size: 0x8, addend: 0x0, symName: __ZN8aiengine6Crypto13decryptObjectERKNSt3__16vectorIhNS1_9allocatorIhEEEE, symObjAddr: 0x70A0, symBinAddr: 0x4D6E0, symSize: 0xF4 }
  - { offsetInCU: 0x46486, offset: 0x217C3A, size: 0x8, addend: 0x0, symName: __ZNK8nlohmann16json_abi_v3_11_210basic_jsonINSt3__13mapENS2_6vectorENS2_12basic_stringIcNS2_11char_traitsIcEENS2_9allocatorIcEEEEbxydS8_NS0_14adl_serializerENS4_IhNS8_IhEEEEE5valueIbRA14_KcbLi0EEET1_OT0_OT_, symObjAddr: 0x1390, symBinAddr: 0x495A8, symSize: 0x1F0 }
  - { offsetInCU: 0x46BCA, offset: 0x21837E, size: 0x8, addend: 0x0, symName: __ZNK8nlohmann16json_abi_v3_11_210basic_jsonINSt3__13mapENS2_6vectorENS2_12basic_stringIcNS2_11char_traitsIcEENS2_9allocatorIcEEEEbxydS8_NS0_14adl_serializerENS4_IhNS8_IhEEEEE5valueIRA1_KcRA11_SG_SA_Li0EEET1_OT0_OT_, symObjAddr: 0x1580, symBinAddr: 0x49798, symSize: 0x26C }
  - { offsetInCU: 0x478B7, offset: 0x21906B, size: 0x8, addend: 0x0, symName: __ZNK8nlohmann16json_abi_v3_11_210basic_jsonINSt3__13mapENS2_6vectorENS2_12basic_stringIcNS2_11char_traitsIcEENS2_9allocatorIcEEEEbxydS8_NS0_14adl_serializerENS4_IhNS8_IhEEEEE5valueIRA1_KcRA10_SG_SA_Li0EEET1_OT0_OT_, symObjAddr: 0x1A28, symBinAddr: 0x49C40, symSize: 0x26C }
  - { offsetInCU: 0x485DE, offset: 0x219D92, size: 0x8, addend: 0x0, symName: __ZN8aiengine6CryptoD1Ev, symObjAddr: 0x1C94, symBinAddr: 0x49EAC, symSize: 0x7C }
  - { offsetInCU: 0x49D03, offset: 0x21B4B7, size: 0x8, addend: 0x0, symName: __ZNSt3__119basic_istringstreamIcNS_11char_traitsIcEENS_9allocatorIcEEEC1B8ue170006ERKNS_12basic_stringIcS2_S4_EEj, symObjAddr: 0x125D4, symBinAddr: 0x525C8, symSize: 0x114 }
  - { offsetInCU: 0x49F26, offset: 0x21B6DA, size: 0x8, addend: 0x0, symName: __ZNSt3__119basic_istringstreamIcNS_11char_traitsIcEENS_9allocatorIcEEED1Ev, symObjAddr: 0x126E8, symBinAddr: 0x526DC, symSize: 0x8C }
  - { offsetInCU: 0x4A2A7, offset: 0x21BA5B, size: 0x8, addend: 0x0, symName: __ZN8aiengine12ModelManager22downloadModelAndVerifyERKN8nlohmann16json_abi_v3_11_210basic_jsonINSt3__13mapENS4_6vectorENS4_12basic_stringIcNS4_11char_traitsIcEENS4_9allocatorIcEEEEbxydSA_NS2_14adl_serializerENS6_IhNSA_IhEEEEEESC_, symObjAddr: 0x1D10, symBinAddr: 0x49F28, symSize: 0x3D4 }
  - { offsetInCU: 0x4BA46, offset: 0x21D1FA, size: 0x8, addend: 0x0, symName: __ZNK8nlohmann16json_abi_v3_11_210basic_jsonINSt3__13mapENS2_6vectorENS2_12basic_stringIcNS2_11char_traitsIcEENS2_9allocatorIcEEEEbxydS8_NS0_14adl_serializerENS4_IhNS8_IhEEEEE5valueIRA33_KcRA9_SG_SA_Li0EEET1_OT0_OT_, symObjAddr: 0x20E4, symBinAddr: 0x4A2FC, symSize: 0x26C }
  - { offsetInCU: 0x4CA45, offset: 0x21E1F9, size: 0x8, addend: 0x0, symName: __ZN8aiengine12ModelManager15computeFilenameENSt3__112basic_stringIcNS1_11char_traitsIcEENS1_9allocatorIcEEEES7_S7_iiijb, symObjAddr: 0x2350, symBinAddr: 0x4A568, symSize: 0xBF8 }
  - { offsetInCU: 0x543D7, offset: 0x225B8B, size: 0x8, addend: 0x0, symName: __ZN8aiengine12ModelManager16loadModelInfoMapENSt3__112basic_stringIcNS1_11char_traitsIcEENS1_9allocatorIcEEEE, symObjAddr: 0x30A0, symBinAddr: 0x4B2B8, symSize: 0xEB0 }
  - { offsetInCU: 0x5A5EE, offset: 0x22BDA2, size: 0x8, addend: 0x0, symName: __ZNK8nlohmann16json_abi_v3_11_210basic_jsonINSt3__13mapENS2_6vectorENS2_12basic_stringIcNS2_11char_traitsIcEENS2_9allocatorIcEEEEbxydS8_NS0_14adl_serializerENS4_IhNS8_IhEEEEE5valueIiRA8_KciLi0EEET1_OT0_OT_, symObjAddr: 0x438C, symBinAddr: 0x4C1C8, symSize: 0x1F4 }
  - { offsetInCU: 0x5B308, offset: 0x22CABC, size: 0x8, addend: 0x0, symName: __ZNSt3__16__treeINS_12__value_typeINS_12basic_stringIcNS_11char_traitsIcEENS_9allocatorIcEEEEN8nlohmann16json_abi_v3_11_210basic_jsonINS_3mapENS_6vectorES7_bxydS5_NS9_14adl_serializerENSC_IhNS5_IhEEEEEEEENS_19__map_value_compareIS7_SH_NS_4lessIS7_EELb1EEENS5_ISH_EEE25__emplace_unique_key_argsIS7_JRKNS_21piecewise_construct_tENS_5tupleIJRKS7_EEENSS_IJEEEEEENS_4pairINS_15__tree_iteratorISH_PNS_11__tree_nodeISH_PvEElEEbEERKT_DpOT0_, symObjAddr: 0x1F960, symBinAddr: 0x59B48, symSize: 0x1E8 }
  - { offsetInCU: 0x5BDF6, offset: 0x22D5AA, size: 0x8, addend: 0x0, symName: __ZNK8nlohmann16json_abi_v3_11_210basic_jsonINSt3__13mapENS2_6vectorENS2_12basic_stringIcNS2_11char_traitsIcEENS2_9allocatorIcEEEEbxydS8_NS0_14adl_serializerENS4_IhNS8_IhEEEEE5valueIRA2_KcRA8_SG_SA_Li0EEET1_OT0_OT_, symObjAddr: 0x4894, symBinAddr: 0x4C3BC, symSize: 0x26C }
  - { offsetInCU: 0x5CB12, offset: 0x22E2C6, size: 0x8, addend: 0x0, symName: __ZNSt3__14__fs10filesystem18directory_iteratorD1B8ue170006Ev, symObjAddr: 0x3F50, symBinAddr: 0x4C168, symSize: 0x60 }
  - { offsetInCU: 0x5FC75, offset: 0x231429, size: 0x8, addend: 0x0, symName: __ZN8aiengine12ModelManager8cacheDirENSt3__112basic_stringIcNS1_11char_traitsIcEENS1_9allocatorIcEEEE, symObjAddr: 0x4BB4, symBinAddr: 0x4C670, symSize: 0x38C }
  - { offsetInCU: 0x611F1, offset: 0x2329A5, size: 0x8, addend: 0x0, symName: __ZN8aiengine12ModelManager9modelPathENSt3__112basic_stringIcNS1_11char_traitsIcEENS1_9allocatorIcEEEE, symObjAddr: 0x4F40, symBinAddr: 0x4C9FC, symSize: 0xFC }
  - { offsetInCU: 0x61D9D, offset: 0x233551, size: 0x8, addend: 0x0, symName: __ZN8aiengine12ModelManager15modelFileExistsERKN8nlohmann16json_abi_v3_11_210basic_jsonINSt3__13mapENS4_6vectorENS4_12basic_stringIcNS4_11char_traitsIcEENS4_9allocatorIcEEEEbxydSA_NS2_14adl_serializerENS6_IhNSA_IhEEEEEESC_, symObjAddr: 0x503C, symBinAddr: 0x4CAF8, symSize: 0x15C }
  - { offsetInCU: 0x62A51, offset: 0x234205, size: 0x8, addend: 0x0, symName: __ZN8aiengine12ModelManager17setAllowDownloadsEb, symObjAddr: 0x5198, symBinAddr: 0x4CC54, symSize: 0x94 }
  - { offsetInCU: 0x62B5A, offset: 0x23430E, size: 0x8, addend: 0x0, symName: __ZN8aiengine12ModelManager15setLocalDirPathERKNSt3__112basic_stringIcNS1_11char_traitsIcEENS1_9allocatorIcEEEE, symObjAddr: 0x522C, symBinAddr: 0x4CCE8, symSize: 0xF4 }
  - { offsetInCU: 0x631C1, offset: 0x234975, size: 0x8, addend: 0x0, symName: __ZN8aiengine12ModelManager16setConfigDirPathERKNSt3__112basic_stringIcNS1_11char_traitsIcEENS1_9allocatorIcEEEE, symObjAddr: 0x5320, symBinAddr: 0x4CDDC, symSize: 0xE8 }
  - { offsetInCU: 0x63843, offset: 0x234FF7, size: 0x8, addend: 0x0, symName: __ZN7aiutils11FileFetcher16setConfigDirPathENSt3__112basic_stringIcNS1_11char_traitsIcEENS1_9allocatorIcEEEE, symObjAddr: 0x1A9C4, symBinAddr: 0x597CC, symSize: 0x37C }
  - { offsetInCU: 0x64672, offset: 0x235E26, size: 0x8, addend: 0x0, symName: __ZN8aiengine12ModelManager15getLocalDirPathEv, symObjAddr: 0x5408, symBinAddr: 0x4CEC4, symSize: 0xA4 }
  - { offsetInCU: 0x64A65, offset: 0x236219, size: 0x8, addend: 0x0, symName: __ZN8aiengine12ModelManager13downloadModelERKN8nlohmann16json_abi_v3_11_210basic_jsonINSt3__13mapENS4_6vectorENS4_12basic_stringIcNS4_11char_traitsIcEENS4_9allocatorIcEEEEbxydSA_NS2_14adl_serializerENS6_IhNSA_IhEEEEEESC_, symObjAddr: 0x54AC, symBinAddr: 0x4CF68, symSize: 0xF4 }
  - { offsetInCU: 0x64A77, offset: 0x23622B, size: 0x8, addend: 0x0, symName: __ZN8aiengine12ModelManager13downloadModelERKN8nlohmann16json_abi_v3_11_210basic_jsonINSt3__13mapENS4_6vectorENS4_12basic_stringIcNS4_11char_traitsIcEENS4_9allocatorIcEEEEbxydSA_NS2_14adl_serializerENS6_IhNSA_IhEEEEEESC_, symObjAddr: 0x54AC, symBinAddr: 0x4CF68, symSize: 0xF4 }
  - { offsetInCU: 0x65133, offset: 0x2368E7, size: 0x8, addend: 0x0, symName: __ZN8aiengine12ModelManagerD1Ev, symObjAddr: 0x55A0, symBinAddr: 0x4D05C, symSize: 0x80 }
  - { offsetInCU: 0x654A0, offset: 0x236C54, size: 0x8, addend: 0x0, symName: __ZN8aiengine12ModelManagerD0Ev, symObjAddr: 0x5620, symBinAddr: 0x4D0DC, symSize: 0x80 }
  - { offsetInCU: 0x66D4D, offset: 0x238501, size: 0x8, addend: 0x0, symName: __ZN8aiengine6CryptoD0Ev, symObjAddr: 0x7024, symBinAddr: 0x4D664, symSize: 0x7C }
  - { offsetInCU: 0x6700C, offset: 0x2387C0, size: 0x8, addend: 0x0, symName: __ZN8aiengine6Crypto7decryptERKNSt3__16vectorIhNS1_9allocatorIhEEEE, symObjAddr: 0x76AC, symBinAddr: 0x4DCEC, symSize: 0x48C }
  - { offsetInCU: 0x68083, offset: 0x239837, size: 0x8, addend: 0x0, symName: __ZN8nlohmann16json_abi_v3_11_210basic_jsonINSt3__13mapENS2_6vectorENS2_12basic_stringIcNS2_11char_traitsIcEENS2_9allocatorIcEEEEbxydS8_NS0_14adl_serializerENS4_IhNS8_IhEEEEE5parseISA_EESE_OT_NS2_8functionIFbiNS0_6detail13parse_event_tERSE_EEEbb, symObjAddr: 0x7418, symBinAddr: 0x4DA58, symSize: 0x294 }
  - { offsetInCU: 0x68AEC, offset: 0x23A2A0, size: 0x8, addend: 0x0, symName: __ZN8aiengine6Crypto13decryptObjectERKNSt3__16vectorIhNS1_9allocatorIhEEEE.cold.1, symObjAddr: 0x20F3C, symBinAddr: 0x6C5F0, symSize: 0x20 }
  - { offsetInCU: 0x6912E, offset: 0x23A8E2, size: 0x8, addend: 0x0, symName: __ZN8nlohmann16json_abi_v3_11_26detail6parserINS0_10basic_jsonINSt3__13mapENS4_6vectorENS4_12basic_stringIcNS4_11char_traitsIcEENS4_9allocatorIcEEEEbxydSA_NS0_14adl_serializerENS6_IhNSA_IhEEEEEENS1_22iterator_input_adapterINS4_11__wrap_iterIPKcEEEEEC2EOSM_NS4_8functionIFbiNS1_13parse_event_tERSG_EEEbb, symObjAddr: 0x82F4, symBinAddr: 0x4E934, symSize: 0x134 }
  - { offsetInCU: 0x6938D, offset: 0x23AB41, size: 0x8, addend: 0x0, symName: __ZN8nlohmann16json_abi_v3_11_26detail6parserINS0_10basic_jsonINSt3__13mapENS4_6vectorENS4_12basic_stringIcNS4_11char_traitsIcEENS4_9allocatorIcEEEEbxydSA_NS0_14adl_serializerENS6_IhNSA_IhEEEEEENS1_22iterator_input_adapterINS4_11__wrap_iterIPKcEEEEE5parseEbRSG_, symObjAddr: 0x7B38, symBinAddr: 0x4E178, symSize: 0x744 }
  - { offsetInCU: 0x6B4FB, offset: 0x23CCAF, size: 0x8, addend: 0x0, symName: __ZN8nlohmann16json_abi_v3_11_26detail6parserINS0_10basic_jsonINSt3__13mapENS4_6vectorENS4_12basic_stringIcNS4_11char_traitsIcEENS4_9allocatorIcEEEEbxydSA_NS0_14adl_serializerENS6_IhNSA_IhEEEEEENS1_22iterator_input_adapterINS4_11__wrap_iterIPKcEEEEED1Ev, symObjAddr: 0x827C, symBinAddr: 0x4E8BC, symSize: 0x78 }
  - { offsetInCU: 0x6C03A, offset: 0x23D7EE, size: 0x8, addend: 0x0, symName: __ZN8nlohmann16json_abi_v3_11_26detail6parserINS0_10basic_jsonINSt3__13mapENS4_6vectorENS4_12basic_stringIcNS4_11char_traitsIcEENS4_9allocatorIcEEEEbxydSA_NS0_14adl_serializerENS6_IhNSA_IhEEEEEENS1_22iterator_input_adapterINS4_11__wrap_iterIPKcEEEEE18sax_parse_internalINS1_19json_sax_dom_parserISG_EEEEbPT_, symObjAddr: 0xB5D4, symBinAddr: 0x51928, symSize: 0xCA0 }
  - { offsetInCU: 0x6DE77, offset: 0x23F62B, size: 0x8, addend: 0x0, symName: __ZN8nlohmann16json_abi_v3_11_26detail5lexerINS0_10basic_jsonINSt3__13mapENS4_6vectorENS4_12basic_stringIcNS4_11char_traitsIcEENS4_9allocatorIcEEEEbxydSA_NS0_14adl_serializerENS6_IhNSA_IhEEEEEENS1_22iterator_input_adapterINS4_11__wrap_iterIPKcEEEEE4scanEv, symObjAddr: 0x8474, symBinAddr: 0x4EAB4, symSize: 0x28C }
  - { offsetInCU: 0x6E5BB, offset: 0x23FD6F, size: 0x8, addend: 0x0, symName: __ZN8nlohmann16json_abi_v3_11_26detail6parserINS0_10basic_jsonINSt3__13mapENS4_6vectorENS4_12basic_stringIcNS4_11char_traitsIcEENS4_9allocatorIcEEEEbxydSA_NS0_14adl_serializerENS6_IhNSA_IhEEEEEENS1_22iterator_input_adapterINS4_11__wrap_iterIPKcEEEEE18sax_parse_internalINS1_28json_sax_dom_callback_parserISG_EEEEbPT_, symObjAddr: 0xA1BC, symBinAddr: 0x507E8, symSize: 0xC90 }
  - { offsetInCU: 0x7036D, offset: 0x241B21, size: 0x8, addend: 0x0, symName: __ZN8nlohmann16json_abi_v3_11_26detail6parserINS0_10basic_jsonINSt3__13mapENS4_6vectorENS4_12basic_stringIcNS4_11char_traitsIcEENS4_9allocatorIcEEEEbxydSA_NS0_14adl_serializerENS6_IhNSA_IhEEEEEENS1_22iterator_input_adapterINS4_11__wrap_iterIPKcEEEEE17exception_messageENS1_10lexer_baseISG_E10token_typeERKSC_, symObjAddr: 0xB1D4, symBinAddr: 0x5155C, symSize: 0x3CC }
  - { offsetInCU: 0x7233C, offset: 0x243AF0, size: 0x8, addend: 0x0, symName: __ZN8nlohmann16json_abi_v3_11_26detail5lexerINS0_10basic_jsonINSt3__13mapENS4_6vectorENS4_12basic_stringIcNS4_11char_traitsIcEENS4_9allocatorIcEEEEbxydSA_NS0_14adl_serializerENS6_IhNSA_IhEEEEEENS1_22iterator_input_adapterINS4_11__wrap_iterIPKcEEEEED1Ev, symObjAddr: 0x8428, symBinAddr: 0x4EA68, symSize: 0x4C }
  - { offsetInCU: 0x7269B, offset: 0x243E4F, size: 0x8, addend: 0x0, symName: __ZN8nlohmann16json_abi_v3_11_26detail5lexerINS0_10basic_jsonINSt3__13mapENS4_6vectorENS4_12basic_stringIcNS4_11char_traitsIcEENS4_9allocatorIcEEEEbxydSA_NS0_14adl_serializerENS6_IhNSA_IhEEEEEENS1_22iterator_input_adapterINS4_11__wrap_iterIPKcEEEEE3getEv, symObjAddr: 0x9DBC, symBinAddr: 0x503FC, symSize: 0x240 }
  - { offsetInCU: 0x72BDE, offset: 0x244392, size: 0x8, addend: 0x0, symName: __ZN8nlohmann16json_abi_v3_11_26detail5lexerINS0_10basic_jsonINSt3__13mapENS4_6vectorENS4_12basic_stringIcNS4_11char_traitsIcEENS4_9allocatorIcEEEEbxydSA_NS0_14adl_serializerENS6_IhNSA_IhEEEEEENS1_22iterator_input_adapterINS4_11__wrap_iterIPKcEEEEE15skip_whitespaceEv, symObjAddr: 0x8700, symBinAddr: 0x4ED40, symSize: 0x25C }
  - { offsetInCU: 0x73170, offset: 0x244924, size: 0x8, addend: 0x0, symName: __ZN8nlohmann16json_abi_v3_11_26detail5lexerINS0_10basic_jsonINSt3__13mapENS4_6vectorENS4_12basic_stringIcNS4_11char_traitsIcEENS4_9allocatorIcEEEEbxydSA_NS0_14adl_serializerENS6_IhNSA_IhEEEEEENS1_22iterator_input_adapterINS4_11__wrap_iterIPKcEEEEE12scan_commentEv, symObjAddr: 0x895C, symBinAddr: 0x4EF9C, symSize: 0x120 }
  - { offsetInCU: 0x73182, offset: 0x244936, size: 0x8, addend: 0x0, symName: __ZN8nlohmann16json_abi_v3_11_26detail5lexerINS0_10basic_jsonINSt3__13mapENS4_6vectorENS4_12basic_stringIcNS4_11char_traitsIcEENS4_9allocatorIcEEEEbxydSA_NS0_14adl_serializerENS6_IhNSA_IhEEEEEENS1_22iterator_input_adapterINS4_11__wrap_iterIPKcEEEEE12scan_commentEv, symObjAddr: 0x895C, symBinAddr: 0x4EF9C, symSize: 0x120 }
  - { offsetInCU: 0x73292, offset: 0x244A46, size: 0x8, addend: 0x0, symName: __ZN8nlohmann16json_abi_v3_11_26detail5lexerINS0_10basic_jsonINSt3__13mapENS4_6vectorENS4_12basic_stringIcNS4_11char_traitsIcEENS4_9allocatorIcEEEEbxydSA_NS0_14adl_serializerENS6_IhNSA_IhEEEEEENS1_22iterator_input_adapterINS4_11__wrap_iterIPKcEEEEE11scan_numberEv, symObjAddr: 0x97C0, symBinAddr: 0x4FE00, symSize: 0x5FC }
  - { offsetInCU: 0x74180, offset: 0x245934, size: 0x8, addend: 0x0, symName: __ZN8nlohmann16json_abi_v3_11_26detail5lexerINS0_10basic_jsonINSt3__13mapENS4_6vectorENS4_12basic_stringIcNS4_11char_traitsIcEENS4_9allocatorIcEEEEbxydSA_NS0_14adl_serializerENS6_IhNSA_IhEEEEEENS1_22iterator_input_adapterINS4_11__wrap_iterIPKcEEEEE11scan_stringEv, symObjAddr: 0x8A7C, symBinAddr: 0x4F0BC, symSize: 0xD44 }
  - { offsetInCU: 0x75E39, offset: 0x2475ED, size: 0x8, addend: 0x0, symName: __ZN8nlohmann16json_abi_v3_11_26detail5lexerINS0_10basic_jsonINSt3__13mapENS4_6vectorENS4_12basic_stringIcNS4_11char_traitsIcEENS4_9allocatorIcEEEEbxydSA_NS0_14adl_serializerENS6_IhNSA_IhEEEEEENS1_22iterator_input_adapterINS4_11__wrap_iterIPKcEEEEE13get_codepointEv, symObjAddr: 0xA010, symBinAddr: 0x5063C, symSize: 0x1AC }
  - { offsetInCU: 0x75EE6, offset: 0x24769A, size: 0x8, addend: 0x0, symName: __ZN8nlohmann16json_abi_v3_11_26detail5lexerINS0_10basic_jsonINSt3__13mapENS4_6vectorENS4_12basic_stringIcNS4_11char_traitsIcEENS4_9allocatorIcEEEEbxydSA_NS0_14adl_serializerENS6_IhNSA_IhEEEEEENS1_22iterator_input_adapterINS4_11__wrap_iterIPKcEEEEE13get_codepointEv, symObjAddr: 0xA010, symBinAddr: 0x5063C, symSize: 0x1AC }
  - { offsetInCU: 0x7894A, offset: 0x24A0FE, size: 0x8, addend: 0x0, symName: __ZNK8nlohmann16json_abi_v3_11_26detail5lexerINS0_10basic_jsonINSt3__13mapENS4_6vectorENS4_12basic_stringIcNS4_11char_traitsIcEENS4_9allocatorIcEEEEbxydSA_NS0_14adl_serializerENS6_IhNSA_IhEEEEEENS1_22iterator_input_adapterINS4_11__wrap_iterIPKcEEEEE16get_token_stringEv, symObjAddr: 0xAEA0, symBinAddr: 0x51478, symSize: 0xE4 }
  - { offsetInCU: 0x8562D, offset: 0x256DE1, size: 0x8, addend: 0x0, symName: __ZNSt3__115basic_stringbufIcNS_11char_traitsIcEENS_9allocatorIcEEE3strERKNS_12basic_stringIcS2_S4_EE, symObjAddr: 0x12920, symBinAddr: 0x52914, symSize: 0x150 }
  - { offsetInCU: 0x8584E, offset: 0x257002, size: 0x8, addend: 0x0, symName: __ZNSt3__119basic_istringstreamIcNS_11char_traitsIcEENS_9allocatorIcEEED0Ev, symObjAddr: 0x12774, symBinAddr: 0x52768, symSize: 0x8C }
  - { offsetInCU: 0x85A19, offset: 0x2571CD, size: 0x8, addend: 0x0, symName: __ZTv0_n24_NSt3__119basic_istringstreamIcNS_11char_traitsIcEENS_9allocatorIcEEED1Ev, symObjAddr: 0x12800, symBinAddr: 0x527F4, symSize: 0x8C }
  - { offsetInCU: 0x85BF5, offset: 0x2573A9, size: 0x8, addend: 0x0, symName: __ZTv0_n24_NSt3__119basic_istringstreamIcNS_11char_traitsIcEENS_9allocatorIcEEED0Ev, symObjAddr: 0x1288C, symBinAddr: 0x52880, symSize: 0x94 }
  - { offsetInCU: 0x86E9D, offset: 0x258651, size: 0x8, addend: 0x0, symName: __ZN4date6detail12save_istreamIcNSt3__111char_traitsIcEEEC2ERNS2_9basic_iosIcS4_EE, symObjAddr: 0x17F10, symBinAddr: 0x57F04, symSize: 0xE0 }
  - { offsetInCU: 0x87002, offset: 0x2587B6, size: 0x8, addend: 0x0, symName: __ZNK4date14year_month_daycvNSt3__16chrono10time_pointINS2_12system_clockENS2_8durationIiNS1_5ratioILl86400ELl1EEEEEEEEv, symObjAddr: 0x174C8, symBinAddr: 0x574BC, symSize: 0xA8 }
  - { offsetInCU: 0x87027, offset: 0x2587DB, size: 0x8, addend: 0x0, symName: __ZNK4date14year_month_daycvNSt3__16chrono10time_pointINS2_12system_clockENS2_8durationIiNS1_5ratioILl86400ELl1EEEEEEEEv, symObjAddr: 0x174C8, symBinAddr: 0x574BC, symSize: 0xA8 }
  - { offsetInCU: 0x87077, offset: 0x25882B, size: 0x8, addend: 0x0, symName: __ZNK4date14year_month_daycvNSt3__16chrono10time_pointINS2_12system_clockENS2_8durationIiNS1_5ratioILl86400ELl1EEEEEEEEv, symObjAddr: 0x174C8, symBinAddr: 0x574BC, symSize: 0xA8 }
  - { offsetInCU: 0x87119, offset: 0x2588CD, size: 0x8, addend: 0x0, symName: __ZNK4date18year_month_weekdaycvNSt3__16chrono10time_pointINS2_12system_clockENS2_8durationIiNS1_5ratioILl86400ELl1EEEEEEEEv, symObjAddr: 0x17DDC, symBinAddr: 0x57DD0, symSize: 0x134 }
  - { offsetInCU: 0x8713E, offset: 0x2588F2, size: 0x8, addend: 0x0, symName: __ZNK4date18year_month_weekdaycvNSt3__16chrono10time_pointINS2_12system_clockENS2_8durationIiNS1_5ratioILl86400ELl1EEEEEEEEv, symObjAddr: 0x17DDC, symBinAddr: 0x57DD0, symSize: 0x134 }
  - { offsetInCU: 0x87166, offset: 0x25891A, size: 0x8, addend: 0x0, symName: __ZNK4date18year_month_weekdaycvNSt3__16chrono10time_pointINS2_12system_clockENS2_8durationIiNS1_5ratioILl86400ELl1EEEEEEEEv, symObjAddr: 0x17DDC, symBinAddr: 0x57DD0, symSize: 0x134 }
  - { offsetInCU: 0x8718E, offset: 0x258942, size: 0x8, addend: 0x0, symName: __ZNK4date18year_month_weekdaycvNSt3__16chrono10time_pointINS2_12system_clockENS2_8durationIiNS1_5ratioILl86400ELl1EEEEEEEEv, symObjAddr: 0x17DDC, symBinAddr: 0x57DD0, symSize: 0x134 }
  - { offsetInCU: 0x871B6, offset: 0x25896A, size: 0x8, addend: 0x0, symName: __ZNK4date18year_month_weekdaycvNSt3__16chrono10time_pointINS2_12system_clockENS2_8durationIiNS1_5ratioILl86400ELl1EEEEEEEEv, symObjAddr: 0x17DDC, symBinAddr: 0x57DD0, symSize: 0x134 }
  - { offsetInCU: 0x8737B, offset: 0x258B2F, size: 0x8, addend: 0x0, symName: __ZN4date14year_month_dayC1ENSt3__16chrono10time_pointINS2_12system_clockENS2_8durationIiNS1_5ratioILl86400ELl1EEEEEEE, symObjAddr: 0x17C9C, symBinAddr: 0x57C90, symSize: 0x140 }
  - { offsetInCU: 0x873A6, offset: 0x258B5A, size: 0x8, addend: 0x0, symName: __ZN4date14year_month_dayC1ENSt3__16chrono10time_pointINS2_12system_clockENS2_8durationIiNS1_5ratioILl86400ELl1EEEEEEE, symObjAddr: 0x17C9C, symBinAddr: 0x57C90, symSize: 0x140 }
  - { offsetInCU: 0x8741D, offset: 0x258BD1, size: 0x8, addend: 0x0, symName: __ZNK4date23year_month_weekday_lastcvNSt3__16chrono10time_pointINS2_12system_clockENS2_8durationIiNS1_5ratioILl86400ELl1EEEEEEEEv, symObjAddr: 0x17B0C, symBinAddr: 0x57B00, symSize: 0x190 }
  - { offsetInCU: 0x87660, offset: 0x258E14, size: 0x8, addend: 0x0, symName: __ZN4date6detail12save_istreamIcNSt3__111char_traitsIcEEED2Ev, symObjAddr: 0x19694, symBinAddr: 0x59688, symSize: 0x144 }
  - { offsetInCU: 0x162FC, offset: 0x278287, size: 0x8, addend: 0x0, symName: __ZN7aiutils10SystemInfo11fetchMemoryEv, symObjAddr: 0x0, symBinAddr: 0x59E04, symSize: 0x124 }
  - { offsetInCU: 0x16859, offset: 0x2787E4, size: 0x8, addend: 0x0, symName: __ZN7aiutils10SystemInfo18loadSystemFeaturesEv, symObjAddr: 0x124, symBinAddr: 0x59F28, symSize: 0x9C }
  - { offsetInCU: 0x16986, offset: 0x278911, size: 0x8, addend: 0x0, symName: __ZN7aiutils10SystemInfo18loadCommonFeaturesEv, symObjAddr: 0x1C0, symBinAddr: 0x59FC4, symSize: 0x234 }
  - { offsetInCU: 0x17A46, offset: 0x2799D1, size: 0x8, addend: 0x0, symName: __ZN7aiutils10SystemInfo11loadCPUInfoEv, symObjAddr: 0xA58, symBinAddr: 0x5A770, symSize: 0x144 }
  - { offsetInCU: 0x17EE0, offset: 0x279E6B, size: 0x8, addend: 0x0, symName: __ZN7aiutils10SystemInfo14fetchMachineIdEv, symObjAddr: 0x96C, symBinAddr: 0x5A684, symSize: 0xBC }
  - { offsetInCU: 0x181A9, offset: 0x27A134, size: 0x8, addend: 0x0, symName: __ZN7aiutils10SystemInfo12fetchGPUInfoEv, symObjAddr: 0x3F4, symBinAddr: 0x5A1F8, symSize: 0x380 }
  - { offsetInCU: 0x191C7, offset: 0x27B152, size: 0x8, addend: 0x0, symName: __ZNSt3__16vectorIN7aiutils10DeviceInfoENS_9allocatorIS2_EEE21__push_back_slow_pathIRKS2_EEvOT_, symObjAddr: 0x1F8C, symBinAddr: 0x5A8B4, symSize: 0x1F0 }
  - { offsetInCU: 0x1A1F0, offset: 0x27C17B, size: 0x8, addend: 0x0, symName: __ZN7aiutils10SystemInfo12fetchCPUNameEv, symObjAddr: 0x860, symBinAddr: 0x5A578, symSize: 0x108 }
  - { offsetInCU: 0x1A67B, offset: 0x27C606, size: 0x8, addend: 0x0, symName: __ZN7aiutils10SystemInfo15isAppTranslatedEv, symObjAddr: 0x968, symBinAddr: 0x5A680, symSize: 0x4 }
  - { offsetInCU: 0x1A69F, offset: 0x27C62A, size: 0x8, addend: 0x0, symName: __ZN7aiutils10SystemInfo15isAppTranslatedEv, symObjAddr: 0x968, symBinAddr: 0x5A680, symSize: 0x4 }
  - { offsetInCU: 0x1A6E5, offset: 0x27C670, size: 0x8, addend: 0x0, symName: __ZN7aiutils10SystemInfo22loadInstructionsForCPUEv, symObjAddr: 0xA28, symBinAddr: 0x5A740, symSize: 0x30 }
  - { offsetInCU: 0x1B42D, offset: 0x27D3B8, size: 0x8, addend: 0x0, symName: __ZN7aiutils10DeviceInfoC2ERKS0_.cold.1, symObjAddr: 0x2210, symBinAddr: 0x6C610, symSize: 0x14 }
  - { offsetInCU: 0x1B448, offset: 0x27D3D3, size: 0x8, addend: 0x0, symName: __ZN7aiutils10DeviceInfoC2ERKS0_.cold.1, symObjAddr: 0x2210, symBinAddr: 0x6C610, symSize: 0x14 }
  - { offsetInCU: 0x1B45D, offset: 0x27D3E8, size: 0x8, addend: 0x0, symName: __ZN7aiutils10DeviceInfoC2ERKS0_.cold.1, symObjAddr: 0x2210, symBinAddr: 0x6C610, symSize: 0x14 }
  - { offsetInCU: 0x1B474, offset: 0x27D3FF, size: 0x8, addend: 0x0, symName: __ZN7aiutils10DeviceInfoC2ERKS0_.cold.1, symObjAddr: 0x2210, symBinAddr: 0x6C610, symSize: 0x14 }
  - { offsetInCU: 0x1B9DF, offset: 0x27D96A, size: 0x8, addend: 0x0, symName: __ZN7aiutils10DeviceInfoC2ERKS0_.cold.1, symObjAddr: 0x2210, symBinAddr: 0x6C610, symSize: 0x14 }
  - { offsetInCU: 0x1B9EA, offset: 0x27D975, size: 0x8, addend: 0x0, symName: __ZNSt3__16vectorIN7aiutils10DeviceInfoENS_9allocatorIS2_EEE21__push_back_slow_pathIRKS2_EEvOT_.cold.1, symObjAddr: 0x2224, symBinAddr: 0x6C624, symSize: 0x4C }
  - { offsetInCU: 0x1BC3E, offset: 0x27DBC9, size: 0x8, addend: 0x0, symName: __ZNSt3__114__split_bufferIN7aiutils10DeviceInfoERNS_9allocatorIS2_EEED1Ev, symObjAddr: 0x217C, symBinAddr: 0x5AAA4, symSize: 0x80 }
  - { offsetInCU: 0x51, offset: 0x27E097, size: 0x8, addend: 0x0, symName: __ZN8aiengine19ModelBackendFactory20__backendNameMappingE, symObjAddr: 0x1178A0, symBinAddr: 0x85148, symSize: 0x0 }
  - { offsetInCU: 0x5F2, offset: 0x27E638, size: 0x8, addend: 0x0, symName: __ZN8aiengine19ModelBackendFactory14__backendNamesE, symObjAddr: 0x1178B8, symBinAddr: 0x85160, symSize: 0x0 }
  - { offsetInCU: 0x606, offset: 0x27E64C, size: 0x8, addend: 0x0, symName: __ZN8aiengine19ModelBackendFactory17__allBackendTypesE, symObjAddr: 0x1178D0, symBinAddr: 0x85178, symSize: 0x0 }
  - { offsetInCU: 0x61A, offset: 0x27E660, size: 0x8, addend: 0x0, symName: __ZN8aiengine19ModelBackendFactory13__allBackendsE, symObjAddr: 0x1178E8, symBinAddr: 0x85190, symSize: 0x0 }
  - { offsetInCU: 0x62E, offset: 0x27E674, size: 0x8, addend: 0x0, symName: __ZN8aiengine19ModelBackendFactory23__availableBackendTypesE, symObjAddr: 0x1178F0, symBinAddr: 0x85198, symSize: 0x0 }
  - { offsetInCU: 0x878, offset: 0x27E8BE, size: 0x8, addend: 0x0, symName: __ZN8aiengine11allBackendsEv, symObjAddr: 0xF0, symBinAddr: 0x5AC14, symSize: 0x8 }
  - { offsetInCU: 0x8A4, offset: 0x27E8EA, size: 0x8, addend: 0x0, symName: __ZN8aiengine20allAvailableBackendsEv, symObjAddr: 0x570, symBinAddr: 0x5B094, symSize: 0x2C0 }
  - { offsetInCU: 0x27C0E, offset: 0x2A5C54, size: 0x8, addend: 0x0, symName: __ZNSt3__13mapINS_12basic_stringIcNS_11char_traitsIcEENS_9allocatorIcEEEEN8aiengine18MODEL_BACKEND_TYPEENS_4lessIS6_EENS4_INS_4pairIKS6_S8_EEEEED1B8ue170006Ev, symObjAddr: 0x0, symBinAddr: 0x5AB24, symSize: 0x28 }
  - { offsetInCU: 0x27CCA, offset: 0x2A5D10, size: 0x8, addend: 0x0, symName: __ZNSt3__16__treeINS_12__value_typeINS_12basic_stringIcNS_11char_traitsIcEENS_9allocatorIcEEEEN8aiengine18MODEL_BACKEND_TYPEEEENS_19__map_value_compareIS7_SA_NS_4lessIS7_EELb1EEENS5_ISA_EEE7destroyEPNS_11__tree_nodeISA_PvEE, symObjAddr: 0x1620, symBinAddr: 0x5BE58, symSize: 0x60 }
  - { offsetInCU: 0x27FCF, offset: 0x2A6015, size: 0x8, addend: 0x0, symName: __ZNSt3__13mapIN8aiengine18MODEL_BACKEND_TYPEENS_12basic_stringIcNS_11char_traitsIcEENS_9allocatorIcEEEENS_4lessIS2_EENS6_INS_4pairIKS2_S8_EEEEED1B8ue170006Ev, symObjAddr: 0x28, symBinAddr: 0x5AB4C, symSize: 0x28 }
  - { offsetInCU: 0x2808B, offset: 0x2A60D1, size: 0x8, addend: 0x0, symName: __ZNSt3__16__treeINS_12__value_typeIN8aiengine18MODEL_BACKEND_TYPEENS_12basic_stringIcNS_11char_traitsIcEENS_9allocatorIcEEEEEENS_19__map_value_compareIS3_SA_NS_4lessIS3_EELb1EEENS7_ISA_EEE7destroyEPNS_11__tree_nodeISA_PvEE, symObjAddr: 0x1964, symBinAddr: 0x5C19C, symSize: 0x60 }
  - { offsetInCU: 0x28401, offset: 0x2A6447, size: 0x8, addend: 0x0, symName: __ZNSt3__16vectorIN8aiengine18MODEL_BACKEND_TYPEENS_9allocatorIS2_EEED1B8ue170006Ev, symObjAddr: 0x50, symBinAddr: 0x5AB74, symSize: 0x30 }
  - { offsetInCU: 0x2875B, offset: 0x2A67A1, size: 0x8, addend: 0x0, symName: __ZN8aiengine19ModelBackendFactory11MakeBackendENS_18MODEL_BACKEND_TYPEE, symObjAddr: 0x80, symBinAddr: 0x5ABA4, symSize: 0x5C }
  - { offsetInCU: 0x288FF, offset: 0x2A6945, size: 0x8, addend: 0x0, symName: __ZN8aiengine19ModelBackendFactory18IsBackendAvailableENS_18MODEL_BACKEND_TYPEE, symObjAddr: 0xDC, symBinAddr: 0x5AC00, symSize: 0x14 }
  - { offsetInCU: 0x28BD5, offset: 0x2A6C1B, size: 0x8, addend: 0x0, symName: __ZN8aiengine19ModelBackendFactory11MakeBackendENSt3__112basic_stringIcNS1_11char_traitsIcEENS1_9allocatorIcEEEE, symObjAddr: 0xF8, symBinAddr: 0x5AC1C, symSize: 0x140 }
  - { offsetInCU: 0x293E2, offset: 0x2A7428, size: 0x8, addend: 0x0, symName: __ZN8aiengine19ModelBackendFactory7TypeForENSt3__112basic_stringIcNS1_11char_traitsIcEENS1_9allocatorIcEEEE, symObjAddr: 0x238, symBinAddr: 0x5AD5C, symSize: 0x144 }
  - { offsetInCU: 0x29A10, offset: 0x2A7A56, size: 0x8, addend: 0x0, symName: __ZNSt3__16__treeINS_12__value_typeINS_12basic_stringIcNS_11char_traitsIcEENS_9allocatorIcEEEEN8aiengine18MODEL_BACKEND_TYPEEEENS_19__map_value_compareIS7_SA_NS_4lessIS7_EELb1EEENS5_ISA_EEE25__emplace_unique_key_argsIS7_JRKNS_21piecewise_construct_tENS_5tupleIJRKS7_EEENSL_IJEEEEEENS_4pairINS_15__tree_iteratorISA_PNS_11__tree_nodeISA_PvEElEEbEERKT_DpOT0_, symObjAddr: 0x19C4, symBinAddr: 0x5C1FC, symSize: 0x1E4 }
  - { offsetInCU: 0x2A87F, offset: 0x2A88C5, size: 0x8, addend: 0x0, symName: __ZN8aiengine19ModelBackendFactory7NameForENS_18MODEL_BACKEND_TYPEE, symObjAddr: 0x37C, symBinAddr: 0x5AEA0, symSize: 0x154 }
  - { offsetInCU: 0x2AF16, offset: 0x2A8F5C, size: 0x8, addend: 0x0, symName: __ZN8aiengine19ModelBackendFactory9MBNameForENS_18MODEL_BACKEND_TYPEE, symObjAddr: 0x4D0, symBinAddr: 0x5AFF4, symSize: 0xA0 }
  - { offsetInCU: 0x2AFCF, offset: 0x2A9015, size: 0x8, addend: 0x0, symName: __ZN8aiengine19ModelBackendFactory9MBNameForENS_18MODEL_BACKEND_TYPEE, symObjAddr: 0x4D0, symBinAddr: 0x5AFF4, symSize: 0xA0 }
  - { offsetInCU: 0x2B80D, offset: 0x2A9853, size: 0x8, addend: 0x0, symName: __ZNKSt3__16vectorIN8aiengine18MODEL_BACKEND_TYPEENS_9allocatorIS2_EEE20__throw_length_errorB8ue170006Ev, symObjAddr: 0xF20, symBinAddr: 0x5B90C, symSize: 0x14 }
  - { offsetInCU: 0x2B836, offset: 0x2A987C, size: 0x8, addend: 0x0, symName: __ZNSt3__16__treeINS_12__value_typeINS_12basic_stringIcNS_11char_traitsIcEENS_9allocatorIcEEEEN8aiengine18MODEL_BACKEND_TYPEEEENS_19__map_value_compareIS7_SA_NS_4lessIS7_EELb1EEENS5_ISA_EEE30__emplace_hint_unique_key_argsIS7_JRKNS_4pairIKS7_S9_EEEEENSI_INS_15__tree_iteratorISA_PNS_11__tree_nodeISA_PvEElEEbEENS_21__tree_const_iteratorISA_SR_lEERKT_DpOT0_, symObjAddr: 0xF34, symBinAddr: 0x5B920, symSize: 0x140 }
  - { offsetInCU: 0x2B8CD, offset: 0x2A9913, size: 0x8, addend: 0x0, symName: __ZN8aiengine19ModelBackendFactory21AvailableBackendTypesEv, symObjAddr: 0x830, symBinAddr: 0x5B354, symSize: 0xFC }
  - { offsetInCU: 0x2C05D, offset: 0x2AA0A3, size: 0x8, addend: 0x0, symName: __ZN8aiengine19ModelBackendFactory27AvailableBackendTypeStringsEv, symObjAddr: 0x92C, symBinAddr: 0x5B450, symSize: 0x350 }
  - { offsetInCU: 0x2DB11, offset: 0x2ABB57, size: 0x8, addend: 0x0, symName: __ZNSt3__16vectorINS_12basic_stringIcNS_11char_traitsIcEENS_9allocatorIcEEEENS4_IS6_EEE21__push_back_slow_pathIS6_EEvOT_, symObjAddr: 0xDA0, symBinAddr: 0x5B7A0, symSize: 0x16C }
  - { offsetInCU: 0x2E7C7, offset: 0x2AC80D, size: 0x8, addend: 0x0, symName: __ZNKSt3__16vectorIN8aiengine18MODEL_BACKEND_TYPEENS_9allocatorIS2_EEE20__throw_length_errorB8ue170006Ev, symObjAddr: 0xF20, symBinAddr: 0x5B90C, symSize: 0x14 }
  - { offsetInCU: 0x2EA48, offset: 0x2ACA8E, size: 0x8, addend: 0x0, symName: __ZNSt3__16__treeINS_12__value_typeINS_12basic_stringIcNS_11char_traitsIcEENS_9allocatorIcEEEEN8aiengine18MODEL_BACKEND_TYPEEEENS_19__map_value_compareIS7_SA_NS_4lessIS7_EELb1EEENS5_ISA_EEE30__emplace_hint_unique_key_argsIS7_JRKNS_4pairIKS7_S9_EEEEENSI_INS_15__tree_iteratorISA_PNS_11__tree_nodeISA_PvEElEEbEENS_21__tree_const_iteratorISA_SR_lEERKT_DpOT0_, symObjAddr: 0xF34, symBinAddr: 0x5B920, symSize: 0x140 }
  - { offsetInCU: 0x2F1FB, offset: 0x2AD241, size: 0x8, addend: 0x0, symName: __ZNSt3__16__treeINS_12__value_typeINS_12basic_stringIcNS_11char_traitsIcEENS_9allocatorIcEEEEN8aiengine18MODEL_BACKEND_TYPEEEENS_19__map_value_compareIS7_SA_NS_4lessIS7_EELb1EEENS5_ISA_EEE12__find_equalIS7_EERPNS_16__tree_node_baseIPvEENS_21__tree_const_iteratorISA_PNS_11__tree_nodeISA_SJ_EElEERPNS_15__tree_end_nodeISL_EESM_RKT_, symObjAddr: 0x1074, symBinAddr: 0x5BA60, symSize: 0x3F8 }
  - { offsetInCU: 0x3013B, offset: 0x2AE181, size: 0x8, addend: 0x0, symName: __ZNSt3__16__treeINS_12__value_typeIN8aiengine18MODEL_BACKEND_TYPEENS_12basic_stringIcNS_11char_traitsIcEENS_9allocatorIcEEEEEENS_19__map_value_compareIS3_SA_NS_4lessIS3_EELb1EEENS7_ISA_EEE30__emplace_hint_unique_key_argsIS3_JRKNS_4pairIKS3_S9_EEEEENSI_INS_15__tree_iteratorISA_PNS_11__tree_nodeISA_PvEElEEbEENS_21__tree_const_iteratorISA_SR_lEERKT_DpOT0_, symObjAddr: 0x1680, symBinAddr: 0x5BEB8, symSize: 0x13C }
  - { offsetInCU: 0x308DC, offset: 0x2AE922, size: 0x8, addend: 0x0, symName: __ZNSt3__16__treeINS_12__value_typeIN8aiengine18MODEL_BACKEND_TYPEENS_12basic_stringIcNS_11char_traitsIcEENS_9allocatorIcEEEEEENS_19__map_value_compareIS3_SA_NS_4lessIS3_EELb1EEENS7_ISA_EEE12__find_equalIS3_EERPNS_16__tree_node_baseIPvEENS_21__tree_const_iteratorISA_PNS_11__tree_nodeISA_SJ_EElEERPNS_15__tree_end_nodeISL_EESM_RKT_, symObjAddr: 0x17BC, symBinAddr: 0x5BFF4, symSize: 0x1A8 }
  - { offsetInCU: 0x30944, offset: 0x2AE98A, size: 0x8, addend: 0x0, symName: __ZNSt3__16__treeINS_12__value_typeIN8aiengine18MODEL_BACKEND_TYPEENS_12basic_stringIcNS_11char_traitsIcEENS_9allocatorIcEEEEEENS_19__map_value_compareIS3_SA_NS_4lessIS3_EELb1EEENS7_ISA_EEE12__find_equalIS3_EERPNS_16__tree_node_baseIPvEENS_21__tree_const_iteratorISA_PNS_11__tree_nodeISA_SJ_EElEERPNS_15__tree_end_nodeISL_EESM_RKT_, symObjAddr: 0x17BC, symBinAddr: 0x5BFF4, symSize: 0x1A8 }
  - { offsetInCU: 0x30962, offset: 0x2AE9A8, size: 0x8, addend: 0x0, symName: __ZNSt3__16__treeINS_12__value_typeIN8aiengine18MODEL_BACKEND_TYPEENS_12basic_stringIcNS_11char_traitsIcEENS_9allocatorIcEEEEEENS_19__map_value_compareIS3_SA_NS_4lessIS3_EELb1EEENS7_ISA_EEE12__find_equalIS3_EERPNS_16__tree_node_baseIPvEENS_21__tree_const_iteratorISA_PNS_11__tree_nodeISA_SJ_EElEERPNS_15__tree_end_nodeISL_EESM_RKT_, symObjAddr: 0x17BC, symBinAddr: 0x5BFF4, symSize: 0x1A8 }
  - { offsetInCU: 0x31B0D, offset: 0x2E0C47, size: 0x8, addend: 0x0, symName: __ZN8aiengine12ModelBackend12loadFromFileENSt3__112basic_stringIcNS1_11char_traitsIcEENS1_9allocatorIcEEEES7_, symObjAddr: 0x0, symBinAddr: 0x5CCF4, symSize: 0xA18 }
  - { offsetInCU: 0x34976, offset: 0x2E3AB0, size: 0x8, addend: 0x0, symName: __ZNSt3__16__treeINS_12__value_typeINS_12basic_stringIcNS_11char_traitsIcEENS_9allocatorIcEEEENS_6vectorIhNS5_IhEEEEEENS_19__map_value_compareIS7_SB_NS_4lessIS7_EELb1EEENS5_ISB_EEE25__emplace_unique_key_argsIS7_JRKNS_21piecewise_construct_tENS_5tupleIJRKS7_EEENSM_IJEEEEEENS_4pairINS_15__tree_iteratorISB_PNS_11__tree_nodeISB_PvEElEEbEERKT_DpOT0_, symObjAddr: 0x6F38, symBinAddr: 0x5F1A4, symSize: 0x1E8 }
  - { offsetInCU: 0x353C6, offset: 0x2E4500, size: 0x8, addend: 0x0, symName: __ZNSt3__16vectorIhNS_9allocatorIhEEE18__assign_with_sizeB8ue170006IPhS5_EEvT_T0_l, symObjAddr: 0x7120, symBinAddr: 0x5F38C, symSize: 0x148 }
  - { offsetInCU: 0x35E6A, offset: 0x2E4FA4, size: 0x8, addend: 0x0, symName: __ZNSt3__16vectorIN7aiutils10DeviceInfoENS_9allocatorIS2_EEE16__init_with_sizeB8ue170006IPS2_S7_EEvT_T0_m.cold.1, symObjAddr: 0x7268, symBinAddr: 0x6C680, symSize: 0x58 }
  - { offsetInCU: 0x35E8D, offset: 0x2E4FC7, size: 0x8, addend: 0x0, symName: __ZNSt3__16__treeINS_12__value_typeINS_12basic_stringIcNS_11char_traitsIcEENS_9allocatorIcEEEENS_6vectorIhNS5_IhEEEEEENS_19__map_value_compareIS7_SB_NS_4lessIS7_EELb1EEENS5_ISB_EEE7destroyEPNS_11__tree_nodeISB_PvEE, symObjAddr: 0x6EC8, symBinAddr: 0x5F134, symSize: 0x70 }
  - { offsetInCU: 0x36DF5, offset: 0x2E5F2F, size: 0x8, addend: 0x0, symName: __ZN8aiengine12ModelBackend14acquireBuffersEv, symObjAddr: 0xB18, symBinAddr: 0x5D70C, symSize: 0x8 }
  - { offsetInCU: 0x36E1C, offset: 0x2E5F56, size: 0x8, addend: 0x0, symName: __ZN8aiengine12ModelBackend14releaseBuffersEv, symObjAddr: 0xB20, symBinAddr: 0x5D714, symSize: 0x4 }
  - { offsetInCU: 0x36E41, offset: 0x2E5F7B, size: 0x8, addend: 0x0, symName: __ZN8aiengine12ModelBackend15setTargetDeviceEi, symObjAddr: 0xB24, symBinAddr: 0x5D718, symSize: 0x8C }
  - { offsetInCU: 0x37705, offset: 0x2E683F, size: 0x8, addend: 0x0, symName: __ZN8aiengine12ModelBackend19setModelBackendInfoERKN8nlohmann16json_abi_v3_11_210basic_jsonINSt3__13mapENS4_6vectorENS4_12basic_stringIcNS4_11char_traitsIcEENS4_9allocatorIcEEEEbxydSA_NS2_14adl_serializerENS6_IhNSA_IhEEEEEE, symObjAddr: 0xBB0, symBinAddr: 0x5D7A4, symSize: 0x478 }
  - { offsetInCU: 0x39EBB, offset: 0x2E8FF5, size: 0x8, addend: 0x0, symName: __ZN8nlohmann16json_abi_v3_11_26detail21iteration_proxy_valueINS1_9iter_implINS0_10basic_jsonINSt3__13mapENS5_6vectorENS5_12basic_stringIcNS5_11char_traitsIcEENS5_9allocatorIcEEEEbxydSB_NS0_14adl_serializerENS7_IhNSB_IhEEEEEEEEEC2ERKSJ_, symObjAddr: 0x4AC4, symBinAddr: 0x5DD34, symSize: 0x180 }
  - { offsetInCU: 0x3A7DA, offset: 0x2E9914, size: 0x8, addend: 0x0, symName: __ZNK8nlohmann16json_abi_v3_11_26detail9iter_implINS0_10basic_jsonINSt3__13mapENS4_6vectorENS4_12basic_stringIcNS4_11char_traitsIcEENS4_9allocatorIcEEEEbxydSA_NS0_14adl_serializerENS6_IhNSA_IhEEEEEEEdeEv, symObjAddr: 0x4C44, symBinAddr: 0x5DEB4, symSize: 0x170 }
  - { offsetInCU: 0x3A9D6, offset: 0x2E9B10, size: 0x8, addend: 0x0, symName: __ZNK8nlohmann16json_abi_v3_11_26detail9iter_implINS0_10basic_jsonINSt3__13mapENS4_6vectorENS4_12basic_stringIcNS4_11char_traitsIcEENS4_9allocatorIcEEEEbxydSA_NS0_14adl_serializerENS6_IhNSA_IhEEEEEEE3keyEv, symObjAddr: 0x5100, symBinAddr: 0x5E024, symSize: 0xD0 }
  - { offsetInCU: 0x3C405, offset: 0x2EB53F, size: 0x8, addend: 0x0, symName: __ZN8nlohmann16json_abi_v3_11_26detail21iteration_proxy_valueINS1_9iter_implINS0_10basic_jsonINSt3__13mapENS5_6vectorENS5_12basic_stringIcNS5_11char_traitsIcEENS5_9allocatorIcEEEEbxydSB_NS0_14adl_serializerENS7_IhNSB_IhEEEEEEEEED1Ev, symObjAddr: 0x336C, symBinAddr: 0x5DCDC, symSize: 0x58 }
  - { offsetInCU: 0x3C6BF, offset: 0x2EB7F9, size: 0x8, addend: 0x0, symName: __ZN8aiengine12ModelBackend14supportsTargetEi, symObjAddr: 0x1028, symBinAddr: 0x5DC1C, symSize: 0x8 }
  - { offsetInCU: 0x3CCE2, offset: 0x2EBE1C, size: 0x8, addend: 0x0, symName: __ZN8aiengine12ModelBackend11createInputEj, symObjAddr: 0x1030, symBinAddr: 0x5DC24, symSize: 0xA4 }
  - { offsetInCU: 0x3D0C7, offset: 0x2EC201, size: 0x8, addend: 0x0, symName: __ZN8aiengine18BufferedModelInputD0Ev, symObjAddr: 0x5DC8, symBinAddr: 0x5E4B4, symSize: 0xA8 }
  - { offsetInCU: 0x3D581, offset: 0x2EC6BB, size: 0x8, addend: 0x0, symName: __ZN8aiengine12ModelBackend7destroyEv, symObjAddr: 0x10D4, symBinAddr: 0x5DCC8, symSize: 0x4 }
  - { offsetInCU: 0x3D5A6, offset: 0x2EC6E0, size: 0x8, addend: 0x0, symName: __ZN8aiengine12ModelBackendD1Ev, symObjAddr: 0x10D8, symBinAddr: 0x6C670, symSize: 0x4 }
  - { offsetInCU: 0x3D5CF, offset: 0x2EC709, size: 0x8, addend: 0x0, symName: __ZN8aiengine12ModelBackendD0Ev, symObjAddr: 0x10DC, symBinAddr: 0x6C674, symSize: 0x4 }
  - { offsetInCU: 0x3D5F8, offset: 0x2EC732, size: 0x8, addend: 0x0, symName: __ZN8aiengine12ModelBackend15getTargetDeviceEv, symObjAddr: 0x10E0, symBinAddr: 0x5DCCC, symSize: 0x8 }
  - { offsetInCU: 0x3D61F, offset: 0x2EC759, size: 0x8, addend: 0x0, symName: __ZN8aiengine12ModelBackend9dummyProcEv, symObjAddr: 0x10E8, symBinAddr: 0x5DCD4, symSize: 0x8 }
  - { offsetInCU: 0x40481, offset: 0x2EF5BB, size: 0x8, addend: 0x0, symName: __ZNSt3__16vectorIN7aiutils10DeviceInfoENS_9allocatorIS2_EEE16__init_with_sizeB8ue170006IPS2_S7_EEvT_T0_m.cold.1, symObjAddr: 0x7268, symBinAddr: 0x6C680, symSize: 0x58 }
  - { offsetInCU: 0x409A3, offset: 0x2EFADD, size: 0x8, addend: 0x0, symName: __ZN7aiutils10DeviceInfoC2ERKS0_.cold.1, symObjAddr: 0x72C0, symBinAddr: 0x6C6D8, symSize: 0x14 }
  - { offsetInCU: 0x409BE, offset: 0x2EFAF8, size: 0x8, addend: 0x0, symName: __ZN7aiutils10DeviceInfoC2ERKS0_.cold.1, symObjAddr: 0x72C0, symBinAddr: 0x6C6D8, symSize: 0x14 }
  - { offsetInCU: 0x409D3, offset: 0x2EFB0D, size: 0x8, addend: 0x0, symName: __ZN7aiutils10DeviceInfoC2ERKS0_.cold.1, symObjAddr: 0x72C0, symBinAddr: 0x6C6D8, symSize: 0x14 }
  - { offsetInCU: 0x409EA, offset: 0x2EFB24, size: 0x8, addend: 0x0, symName: __ZN7aiutils10DeviceInfoC2ERKS0_.cold.1, symObjAddr: 0x72C0, symBinAddr: 0x6C6D8, symSize: 0x14 }
  - { offsetInCU: 0x46CD9, offset: 0x2F5E13, size: 0x8, addend: 0x0, symName: __ZN8aiengine10ModelInput12fixLayerNameERKNSt3__112basic_stringIcNS1_11char_traitsIcEENS1_9allocatorIcEEEE, symObjAddr: 0x5A08, symBinAddr: 0x5E0F4, symSize: 0x288 }
  - { offsetInCU: 0x47D57, offset: 0x2F6E91, size: 0x8, addend: 0x0, symName: __ZN8aiengine18BufferedModelInput8setImageERKNSt3__112basic_stringIcNS1_11char_traitsIcEENS1_9allocatorIcEEEERKN2cv3MatE, symObjAddr: 0x5C90, symBinAddr: 0x5E37C, symSize: 0x4C }
  - { offsetInCU: 0x47DE9, offset: 0x2F6F23, size: 0x8, addend: 0x0, symName: __ZNSt3__16__treeINS_12__value_typeINS_12basic_stringIcNS_11char_traitsIcEENS_9allocatorIcEEEEN2cv3MatEEENS_19__map_value_compareIS7_SA_NS_4lessIS7_EELb1EEENS5_ISA_EEE25__emplace_unique_key_argsIS7_JRKNS_21piecewise_construct_tENS_5tupleIJRKS7_EEENSL_IJEEEEEENS_4pairINS_15__tree_iteratorISA_PNS_11__tree_nodeISA_PvEElEEbEERKT_DpOT0_, symObjAddr: 0x6404, symBinAddr: 0x5EAE8, symSize: 0x17C }
  - { offsetInCU: 0x48221, offset: 0x2F735B, size: 0x8, addend: 0x0, symName: __ZN8aiengine18BufferedModelInput8setValueERKNSt3__112basic_stringIcNS1_11char_traitsIcEENS1_9allocatorIcEEEEf, symObjAddr: 0x5CDC, symBinAddr: 0x5E3C8, symSize: 0x44 }
  - { offsetInCU: 0x482AF, offset: 0x2F73E9, size: 0x8, addend: 0x0, symName: __ZNSt3__16__treeINS_12__value_typeINS_12basic_stringIcNS_11char_traitsIcEENS_9allocatorIcEEEEfEENS_19__map_value_compareIS7_S8_NS_4lessIS7_EELb1EEENS5_IS8_EEE25__emplace_unique_key_argsIS7_JRKNS_21piecewise_construct_tENS_5tupleIJRKS7_EEENSJ_IJEEEEEENS_4pairINS_15__tree_iteratorIS8_PNS_11__tree_nodeIS8_PvEElEEbEERKT_DpOT0_, symObjAddr: 0x66FC, symBinAddr: 0x5EDE0, symSize: 0x1E4 }
  - { offsetInCU: 0x48EE8, offset: 0x2F8022, size: 0x8, addend: 0x0, symName: __ZN8aiengine18BufferedModelInputD1Ev, symObjAddr: 0x5D20, symBinAddr: 0x5E40C, symSize: 0xA8 }
  - { offsetInCU: 0x4937C, offset: 0x2F84B6, size: 0x8, addend: 0x0, symName: __ZNSt3__16__treeINS_12__value_typeINS_12basic_stringIcNS_11char_traitsIcEENS_9allocatorIcEEEEfEENS_19__map_value_compareIS7_S8_NS_4lessIS7_EELb1EEENS5_IS8_EEE7destroyEPNS_11__tree_nodeIS8_PvEE, symObjAddr: 0x68E0, symBinAddr: 0x5EFC4, symSize: 0x60 }
  - { offsetInCU: 0x4960A, offset: 0x2F8744, size: 0x8, addend: 0x0, symName: __ZNSt3__16__treeINS_12__value_typeINS_12basic_stringIcNS_11char_traitsIcEENS_9allocatorIcEEEEN2cv3MatEEENS_19__map_value_compareIS7_SA_NS_4lessIS7_EELb1EEENS5_ISA_EEE7destroyEPNS_11__tree_nodeISA_PvEE, symObjAddr: 0x6940, symBinAddr: 0x5F024, symSize: 0x68 }
  - { offsetInCU: 0x498B2, offset: 0x2F89EC, size: 0x8, addend: 0x0, symName: __ZN8aiengine10ModelInput6setMatERKNSt3__112basic_stringIcNS1_11char_traitsIcEENS1_9allocatorIcEEEERKN2cv3MatE, symObjAddr: 0x5E70, symBinAddr: 0x5E55C, symSize: 0x8C }
  - { offsetInCU: 0x49B99, offset: 0x2F8CD3, size: 0x8, addend: 0x0, symName: __ZN8aiengine10ModelInput12setParameterERKNSt3__112basic_stringIcNS1_11char_traitsIcEENS1_9allocatorIcEEEEf, symObjAddr: 0x5EFC, symBinAddr: 0x5E5E8, symSize: 0x98 }
  - { offsetInCU: 0x4A0BA, offset: 0x2F91F4, size: 0x8, addend: 0x0, symName: __ZN8aiengine18BufferedModelInput3logEv, symObjAddr: 0x5F94, symBinAddr: 0x5E680, symSize: 0x270 }
  - { offsetInCU: 0x4AFCC, offset: 0x2FA106, size: 0x8, addend: 0x0, symName: __ZNSt3__14pairIKNS_12basic_stringIcNS_11char_traitsIcEENS_9allocatorIcEEEEN2cv3MatEED1Ev, symObjAddr: 0x66B4, symBinAddr: 0x5ED98, symSize: 0x48 }
  - { offsetInCU: 0x4B1D6, offset: 0x2FA310, size: 0x8, addend: 0x0, symName: __ZN8aiengine18BufferedModelInput5clearEv, symObjAddr: 0x6204, symBinAddr: 0x5E8F0, symSize: 0x88 }
  - { offsetInCU: 0x4B649, offset: 0x2FA783, size: 0x8, addend: 0x0, symName: __ZN8aiengine10ModelInput19setOutputLayerNamesERKNSt3__16vectorINS1_12basic_stringIcNS1_11char_traitsIcEENS1_9allocatorIcEEEENS6_IS8_EEEE, symObjAddr: 0x628C, symBinAddr: 0x5E978, symSize: 0x118 }
  - { offsetInCU: 0x4C0BA, offset: 0x2FB1F4, size: 0x8, addend: 0x0, symName: __ZN8aiengine10ModelInputD1Ev, symObjAddr: 0x63A4, symBinAddr: 0x6C678, symSize: 0x4 }
  - { offsetInCU: 0x4C0E3, offset: 0x2FB21D, size: 0x8, addend: 0x0, symName: __ZN8aiengine10ModelInputD0Ev, symObjAddr: 0x63A8, symBinAddr: 0x6C67C, symSize: 0x4 }
  - { offsetInCU: 0x4C10C, offset: 0x2FB246, size: 0x8, addend: 0x0, symName: __ZN8aiengine10ModelInput5clearEv, symObjAddr: 0x63AC, symBinAddr: 0x5EA90, symSize: 0x58 }
  - { offsetInCU: 0x4C470, offset: 0x2FB5AA, size: 0x8, addend: 0x0, symName: __ZNSt3__16__treeINS_12__value_typeINS_12basic_stringIcNS_11char_traitsIcEENS_9allocatorIcEEEEN2cv3MatEEENS_19__map_value_compareIS7_SA_NS_4lessIS7_EELb1EEENS5_ISA_EEE16__construct_nodeIJRKNS_21piecewise_construct_tENS_5tupleIJRKS7_EEENSL_IJEEEEEENS_10unique_ptrINS_11__tree_nodeISA_PvEENS_22__tree_node_destructorINS5_IST_EEEEEEDpOT_, symObjAddr: 0x6580, symBinAddr: 0x5EC64, symSize: 0xE0 }
  - { offsetInCU: 0x4CEA9, offset: 0x2FBFE3, size: 0x8, addend: 0x0, symName: __ZNSt3__110unique_ptrINS_11__tree_nodeINS_12__value_typeINS_12basic_stringIcNS_11char_traitsIcEENS_9allocatorIcEEEEN2cv3MatEEEPvEENS_22__tree_node_destructorINS6_ISD_EEEEED1B8ue170006Ev, symObjAddr: 0x6660, symBinAddr: 0x5ED44, symSize: 0x54 }
  - { offsetInCU: 0x4D959, offset: 0x2FCA93, size: 0x8, addend: 0x0, symName: __ZNSt3__120__shared_ptr_pointerIPN8aiengine18BufferedModelInputENS_10shared_ptrINS1_10ModelInputEE27__shared_ptr_default_deleteIS5_S2_EENS_9allocatorIS2_EEED1Ev, symObjAddr: 0x6B28, symBinAddr: 0x5F08C, symSize: 0x4 }
  - { offsetInCU: 0x4D980, offset: 0x2FCABA, size: 0x8, addend: 0x0, symName: __ZNSt3__120__shared_ptr_pointerIPN8aiengine18BufferedModelInputENS_10shared_ptrINS1_10ModelInputEE27__shared_ptr_default_deleteIS5_S2_EENS_9allocatorIS2_EEED1Ev, symObjAddr: 0x6B28, symBinAddr: 0x5F08C, symSize: 0x4 }
  - { offsetInCU: 0x4D9A3, offset: 0x2FCADD, size: 0x8, addend: 0x0, symName: __ZNSt3__120__shared_ptr_pointerIPN8aiengine18BufferedModelInputENS_10shared_ptrINS1_10ModelInputEE27__shared_ptr_default_deleteIS5_S2_EENS_9allocatorIS2_EEED1Ev, symObjAddr: 0x6B28, symBinAddr: 0x5F08C, symSize: 0x4 }
  - { offsetInCU: 0x4D9DB, offset: 0x2FCB15, size: 0x8, addend: 0x0, symName: __ZNSt3__120__shared_ptr_pointerIPN8aiengine18BufferedModelInputENS_10shared_ptrINS1_10ModelInputEE27__shared_ptr_default_deleteIS5_S2_EENS_9allocatorIS2_EEED0Ev, symObjAddr: 0x6B2C, symBinAddr: 0x5F090, symSize: 0x14 }
  - { offsetInCU: 0x4DA42, offset: 0x2FCB7C, size: 0x8, addend: 0x0, symName: __ZNSt3__120__shared_ptr_pointerIPN8aiengine18BufferedModelInputENS_10shared_ptrINS1_10ModelInputEE27__shared_ptr_default_deleteIS5_S2_EENS_9allocatorIS2_EEE16__on_zero_sharedEv, symObjAddr: 0x6B40, symBinAddr: 0x5F0A4, symSize: 0x18 }
  - { offsetInCU: 0x4DAF0, offset: 0x2FCC2A, size: 0x8, addend: 0x0, symName: __ZNKSt3__120__shared_ptr_pointerIPN8aiengine18BufferedModelInputENS_10shared_ptrINS1_10ModelInputEE27__shared_ptr_default_deleteIS5_S2_EENS_9allocatorIS2_EEE13__get_deleterERKSt9type_info, symObjAddr: 0x6B58, symBinAddr: 0x5F0BC, symSize: 0x74 }
  - { offsetInCU: 0x4DBCD, offset: 0x2FCD07, size: 0x8, addend: 0x0, symName: __ZNSt3__120__shared_ptr_pointerIPN8aiengine18BufferedModelInputENS_10shared_ptrINS1_10ModelInputEE27__shared_ptr_default_deleteIS5_S2_EENS_9allocatorIS2_EEE21__on_zero_shared_weakEv, symObjAddr: 0x6BCC, symBinAddr: 0x5F130, symSize: 0x4 }
  - { offsetInCU: 0x4DC02, offset: 0x2FCD3C, size: 0x8, addend: 0x0, symName: __ZNSt3__120__shared_ptr_pointerIPN8aiengine18BufferedModelInputENS_10shared_ptrINS1_10ModelInputEE27__shared_ptr_default_deleteIS5_S2_EENS_9allocatorIS2_EEE21__on_zero_shared_weakEv, symObjAddr: 0x6BCC, symBinAddr: 0x5F130, symSize: 0x4 }
  - { offsetInCU: 0x4DC27, offset: 0x2FCD61, size: 0x8, addend: 0x0, symName: __ZNSt3__120__shared_ptr_pointerIPN8aiengine18BufferedModelInputENS_10shared_ptrINS1_10ModelInputEE27__shared_ptr_default_deleteIS5_S2_EENS_9allocatorIS2_EEE21__on_zero_shared_weakEv, symObjAddr: 0x6BCC, symBinAddr: 0x5F130, symSize: 0x4 }
  - { offsetInCU: 0x4DC56, offset: 0x2FCD90, size: 0x8, addend: 0x0, symName: __ZNSt3__120__shared_ptr_pointerIPN8aiengine18BufferedModelInputENS_10shared_ptrINS1_10ModelInputEE27__shared_ptr_default_deleteIS5_S2_EENS_9allocatorIS2_EEE21__on_zero_shared_weakEv, symObjAddr: 0x6BCC, symBinAddr: 0x5F130, symSize: 0x4 }
  - { offsetInCU: 0x4DC7F, offset: 0x2FCDB9, size: 0x8, addend: 0x0, symName: __ZNSt3__120__shared_ptr_pointerIPN8aiengine18BufferedModelInputENS_10shared_ptrINS1_10ModelInputEE27__shared_ptr_default_deleteIS5_S2_EENS_9allocatorIS2_EEE21__on_zero_shared_weakEv, symObjAddr: 0x6BCC, symBinAddr: 0x5F130, symSize: 0x4 }
  - { offsetInCU: 0x3F, offset: 0x2FD4EF, size: 0x8, addend: 0x0, symName: _entryCache, symObjAddr: 0x17B660, symBinAddr: 0x851B0, symSize: 0x0 }
  - { offsetInCU: 0x186B4, offset: 0x315B64, size: 0x8, addend: 0x0, symName: __ZNSt3__17getlineB8ue170006IcNS_11char_traitsIcEENS_9allocatorIcEEEERNS_13basic_istreamIT_T0_EES9_RNS_12basic_stringIS6_S7_T1_EES6_, symObjAddr: 0x5C1C, symBinAddr: 0x63D54, symSize: 0x188 }
  - { offsetInCU: 0x1A233, offset: 0x3176E3, size: 0x8, addend: 0x0, symName: __ZNSt3__16removeB8ue170006INS_11__wrap_iterIPNS_12basic_stringIcNS_11char_traitsIcEENS_9allocatorIcEEEEEES7_EET_SA_SA_RKT0_, symObjAddr: 0x8588, symBinAddr: 0x6444C, symSize: 0x1E4 }
  - { offsetInCU: 0x1BA37, offset: 0x318EE7, size: 0x8, addend: 0x0, symName: _fileCache, symObjAddr: 0x17B678, symBinAddr: 0x851C8, symSize: 0x0 }
  - { offsetInCU: 0x1C0F3, offset: 0x3195A3, size: 0x8, addend: 0x0, symName: __ZN7aiutils8strutils5splitENSt3__112basic_stringIcNS1_11char_traitsIcEENS1_9allocatorIcEEEEc, symObjAddr: 0x2518, symBinAddr: 0x61868, symSize: 0x1EC }
  - { offsetInCU: 0x1CC23, offset: 0x31A0D3, size: 0x8, addend: 0x0, symName: __ZN7aiutils7tzutils19readCompressedModelENSt3__112basic_stringIcNS1_11char_traitsIcEENS1_9allocatorIcEEEERNS1_6vectorIhNS5_IhEEEES7_, symObjAddr: 0x28, symBinAddr: 0x5F4FC, symSize: 0x254 }
  - { offsetInCU: 0x1DC05, offset: 0x31B0B5, size: 0x8, addend: 0x0, symName: __ZN7aiutils7tzutils19readCompressedFilesENSt3__112basic_stringIcNS1_11char_traitsIcEENS1_9allocatorIcEEEERNS1_3mapIS7_NS1_6vectorIhNS5_IhEEEENS1_4lessIS7_EENS5_INS1_4pairIKS7_SB_EEEEEES7_b, symObjAddr: 0x27C, symBinAddr: 0x5F750, symSize: 0xE9C }
  - { offsetInCU: 0x22745, offset: 0x31FBF5, size: 0x8, addend: 0x0, symName: __ZN7aiutils7tzutils13uncompressZipENSt3__112basic_stringIcNS1_11char_traitsIcEENS1_9allocatorIcEEEES7_S7_, symObjAddr: 0x1118, symBinAddr: 0x605EC, symSize: 0xA28 }
  - { offsetInCU: 0x25EEC, offset: 0x32339C, size: 0x8, addend: 0x0, symName: __ZN7aiutils7tzutils12readZipEntryENSt3__112basic_stringIcNS1_11char_traitsIcEENS1_9allocatorIcEEEES7_S7_, symObjAddr: 0x1CB8, symBinAddr: 0x61014, symSize: 0x854 }
  - { offsetInCU: 0x28CBC, offset: 0x32616C, size: 0x8, addend: 0x0, symName: __ZN7aiutils7tzutils21readUncompressedModelENSt3__112basic_stringIcNS1_11char_traitsIcEENS1_9allocatorIcEEEERNS1_6vectorIhNS5_IhEEEE, symObjAddr: 0x2704, symBinAddr: 0x61A54, symSize: 0x4D0 }
  - { offsetInCU: 0x298A7, offset: 0x326D57, size: 0x8, addend: 0x0, symName: __ZN7aiutils7tzutils12bufferToFileERNSt3__16vectorIhNS1_9allocatorIhEEEENS1_12basic_stringIcNS1_11char_traitsIcEENS3_IcEEEE, symObjAddr: 0x2C34, symBinAddr: 0x61F24, symSize: 0x3B8 }
  - { offsetInCU: 0x2A9D9, offset: 0x327E89, size: 0x8, addend: 0x0, symName: __ZN7aiutils7tzutils17saveEncryptedFileERNSt3__13mapINS1_12basic_stringIcNS1_11char_traitsIcEENS1_9allocatorIcEEEENS1_6vectorIhNS6_IhEEEENS1_4lessIS8_EENS6_INS1_4pairIKS8_SB_EEEEEES8_S8_, symObjAddr: 0x3154, symBinAddr: 0x62444, symSize: 0x3A0 }
  - { offsetInCU: 0x2B9BC, offset: 0x328E6C, size: 0x8, addend: 0x0, symName: __ZN7aiutils7tzutils25readCachedCompressedFilesENSt3__112basic_stringIcNS1_11char_traitsIcEENS1_9allocatorIcEEEES7_, symObjAddr: 0x3544, symBinAddr: 0x62834, symSize: 0x684 }
  - { offsetInCU: 0x2EAFE, offset: 0x32BFAE, size: 0x8, addend: 0x0, symName: __ZN7aiutils7tzutils22verifyCompressedBufferENSt3__112basic_stringIcNS1_11char_traitsIcEENS1_9allocatorIcEEEERKNS1_6vectorIhNS5_IhEEEES7_b, symObjAddr: 0x3C28, symBinAddr: 0x62EB8, symSize: 0xE9C }
  - { offsetInCU: 0x33084, offset: 0x330534, size: 0x8, addend: 0x0, symName: __ZN7aiutils12CacheManager15__pCacheManagerE, symObjAddr: 0xBD58, symBinAddr: 0x85030, symSize: 0x0 }
  - { offsetInCU: 0x37D58, offset: 0x335208, size: 0x8, addend: 0x0, symName: __ZNSt3__13mapINS_12basic_stringIcNS_11char_traitsIcEENS_9allocatorIcEEEES6_NS_4lessIS6_EENS4_INS_4pairIKS6_S6_EEEEED1B8ue170006Ev, symObjAddr: 0x0, symBinAddr: 0x5F4D4, symSize: 0x28 }
  - { offsetInCU: 0x38BAC, offset: 0x33605C, size: 0x8, addend: 0x0, symName: __ZNSt3__16vectorINS_12basic_stringIcNS_11char_traitsIcEENS_9allocatorIcEEEENS4_IS6_EEEC2ERKS8_, symObjAddr: 0x9F04, symBinAddr: 0x65088, symSize: 0xB4 }
  - { offsetInCU: 0x39CF6, offset: 0x3371A6, size: 0x8, addend: 0x0, symName: __ZNSt3__16__treeINS_12__value_typeINS_12basic_stringIcNS_11char_traitsIcEENS_9allocatorIcEEEENS_6vectorIhNS5_IhEEEEEENS_19__map_value_compareIS7_SB_NS_4lessIS7_EELb1EEENS5_ISB_EEE25__emplace_unique_key_argsIS7_JRKNS_21piecewise_construct_tENS_5tupleIJOS7_EEENSM_IJEEEEEENS_4pairINS_15__tree_iteratorISB_PNS_11__tree_nodeISB_PvEElEEbEERKT_DpOT0_, symObjAddr: 0xA4C8, symBinAddr: 0x653FC, symSize: 0x17C }
  - { offsetInCU: 0x3ACB3, offset: 0x338163, size: 0x8, addend: 0x0, symName: __ZN7aiutils12CacheManager11GetInstanceEf, symObjAddr: 0x7138, symBinAddr: 0x64144, symSize: 0x110 }
  - { offsetInCU: 0x3B1EE, offset: 0x33869E, size: 0x8, addend: 0x0, symName: __ZNSt3__16vectorINS_12basic_stringIcNS_11char_traitsIcEENS_9allocatorIcEEEENS4_IS6_EEEC2ERKS8_, symObjAddr: 0x9F04, symBinAddr: 0x65088, symSize: 0xB4 }
  - { offsetInCU: 0x3BB10, offset: 0x338FC0, size: 0x8, addend: 0x0, symName: __ZNSt3__16__treeINS_12__value_typeINS_12basic_stringIcNS_11char_traitsIcEENS_9allocatorIcEEEES7_EENS_19__map_value_compareIS7_S8_NS_4lessIS7_EELb1EEENS5_IS8_EEE25__emplace_unique_key_argsIS7_JRKNS_21piecewise_construct_tENS_5tupleIJOS7_EEENSJ_IJEEEEEENS_4pairINS_15__tree_iteratorIS8_PNS_11__tree_nodeIS8_PvEElEEbEERKT_DpOT0_, symObjAddr: 0xA34C, symBinAddr: 0x65280, symSize: 0x17C }
  - { offsetInCU: 0x3C9CE, offset: 0x339E7E, size: 0x8, addend: 0x0, symName: __ZNSt3__114basic_ofstreamIcNS_11char_traitsIcEEEC1ERKNS_12basic_stringIcS2_NS_9allocatorIcEEEEj, symObjAddr: 0x2FEC, symBinAddr: 0x622DC, symSize: 0x108 }
  - { offsetInCU: 0x3CBD9, offset: 0x33A089, size: 0x8, addend: 0x0, symName: __ZNSt3__114basic_ofstreamIcNS_11char_traitsIcEEED1Ev, symObjAddr: 0x30F4, symBinAddr: 0x623E4, symSize: 0x60 }
  - { offsetInCU: 0x3CD3E, offset: 0x33A1EE, size: 0x8, addend: 0x0, symName: __ZNSt3__14pairIKNS_12basic_stringIcNS_11char_traitsIcEENS_9allocatorIcEEEENS_6vectorIhNS4_IhEEEEEC2B8ue170006ERKSB_, symObjAddr: 0x6FE4, symBinAddr: 0x64004, symSize: 0x140 }
  - { offsetInCU: 0x3D6FB, offset: 0x33ABAB, size: 0x8, addend: 0x0, symName: __ZNSt3__14pairIKNS_12basic_stringIcNS_11char_traitsIcEENS_9allocatorIcEEEENS_6vectorIhNS4_IhEEEEED1Ev, symObjAddr: 0x34F4, symBinAddr: 0x627E4, symSize: 0x50 }
  - { offsetInCU: 0x3DDF9, offset: 0x33B2A9, size: 0x8, addend: 0x0, symName: __ZN7aiutils12CacheManager11GetInstanceEf, symObjAddr: 0x7138, symBinAddr: 0x64144, symSize: 0x110 }
  - { offsetInCU: 0x3DFC3, offset: 0x33B473, size: 0x8, addend: 0x0, symName: __ZN7aiutils12CacheManager8containsERKNSt3__112basic_stringIcNS1_11char_traitsIcEENS1_9allocatorIcEEEE, symObjAddr: 0x8390, symBinAddr: 0x64254, symSize: 0x10C }
  - { offsetInCU: 0x3E353, offset: 0x33B803, size: 0x8, addend: 0x0, symName: __ZN7aiutils12CacheManager12recentlyUsedERKNSt3__112basic_stringIcNS1_11char_traitsIcEENS1_9allocatorIcEEEE, symObjAddr: 0x849C, symBinAddr: 0x64360, symSize: 0xEC }
  - { offsetInCU: 0x3E897, offset: 0x33BD47, size: 0x8, addend: 0x0, symName: __ZNSt3__16__treeINS_12__value_typeINS_12basic_stringIcNS_11char_traitsIcEENS_9allocatorIcEEEEN7aiutils9CacheDataEEENS_19__map_value_compareIS7_SA_NS_4lessIS7_EELb1EEENS5_ISA_EEE25__emplace_unique_key_argsIS7_JRKNS_21piecewise_construct_tENS_5tupleIJRKS7_EEENSL_IJEEEEEENS_4pairINS_15__tree_iteratorISA_PNS_11__tree_nodeISA_PvEElEEbEERKT_DpOT0_, symObjAddr: 0x876C, symBinAddr: 0x64630, symSize: 0x18C }
  - { offsetInCU: 0x3EF00, offset: 0x33C3B0, size: 0x8, addend: 0x0, symName: __ZN7aiutils9CacheDataC2ERKNSt3__110shared_ptrINS1_3mapINS1_12basic_stringIcNS1_11char_traitsIcEENS1_9allocatorIcEEEENS1_6vectorIhNS7_IhEEEENS1_4lessIS9_EENS7_INS1_4pairIKS9_SC_EEEEEEEE, symObjAddr: 0x8A18, symBinAddr: 0x648DC, symSize: 0x138 }
  - { offsetInCU: 0x3F497, offset: 0x33C947, size: 0x8, addend: 0x0, symName: __ZN7aiutils12CacheManager3addERKNSt3__112basic_stringIcNS1_11char_traitsIcEENS1_9allocatorIcEEEERKNS_9CacheDataE, symObjAddr: 0x8D64, symBinAddr: 0x64A74, symSize: 0x2A4 }
  - { offsetInCU: 0x40468, offset: 0x33D918, size: 0x8, addend: 0x0, symName: __ZN7aiutils9CacheDataD1Ev, symObjAddr: 0x8D04, symBinAddr: 0x64A14, symSize: 0x60 }
  - { offsetInCU: 0x4173C, offset: 0x33EBEC, size: 0x8, addend: 0x0, symName: __ZTv0_n24_NSt3__114basic_ofstreamIcNS_11char_traitsIcEEED1Ev, symObjAddr: 0x6EBC, symBinAddr: 0x63EDC, symSize: 0x60 }
  - { offsetInCU: 0x417CC, offset: 0x33EC7C, size: 0x8, addend: 0x0, symName: __ZNSt3__114basic_ofstreamIcNS_11char_traitsIcEEED0Ev, symObjAddr: 0x6F1C, symBinAddr: 0x63F3C, symSize: 0x60 }
  - { offsetInCU: 0x4187D, offset: 0x33ED2D, size: 0x8, addend: 0x0, symName: __ZTv0_n24_NSt3__114basic_ofstreamIcNS_11char_traitsIcEEED0Ev, symObjAddr: 0x6F7C, symBinAddr: 0x63F9C, symSize: 0x68 }
  - { offsetInCU: 0x41AB5, offset: 0x33EF65, size: 0x8, addend: 0x0, symName: __ZNSt3__14pairIKNS_12basic_stringIcNS_11char_traitsIcEENS_9allocatorIcEEEENS_6vectorIhNS4_IhEEEEEC2B8ue170006ERKSB_.cold.1, symObjAddr: 0xA9F8, symBinAddr: 0x6C6EC, symSize: 0x10 }
  - { offsetInCU: 0x41AD0, offset: 0x33EF80, size: 0x8, addend: 0x0, symName: __ZNSt3__14pairIKNS_12basic_stringIcNS_11char_traitsIcEENS_9allocatorIcEEEENS_6vectorIhNS4_IhEEEEEC2B8ue170006ERKSB_.cold.1, symObjAddr: 0xA9F8, symBinAddr: 0x6C6EC, symSize: 0x10 }
  - { offsetInCU: 0x41AE5, offset: 0x33EF95, size: 0x8, addend: 0x0, symName: __ZNSt3__14pairIKNS_12basic_stringIcNS_11char_traitsIcEENS_9allocatorIcEEEENS_6vectorIhNS4_IhEEEEEC2B8ue170006ERKSB_.cold.1, symObjAddr: 0xA9F8, symBinAddr: 0x6C6EC, symSize: 0x10 }
  - { offsetInCU: 0x41AFC, offset: 0x33EFAC, size: 0x8, addend: 0x0, symName: __ZNSt3__14pairIKNS_12basic_stringIcNS_11char_traitsIcEENS_9allocatorIcEEEENS_6vectorIhNS4_IhEEEEEC2B8ue170006ERKSB_.cold.1, symObjAddr: 0xA9F8, symBinAddr: 0x6C6EC, symSize: 0x10 }
  - { offsetInCU: 0x4522C, offset: 0x3426DC, size: 0x8, addend: 0x0, symName: __ZNSt3__16vectorIN7aiutils10DeviceInfoENS_9allocatorIS2_EEE16__init_with_sizeB8ue170006IPS2_S7_EEvT_T0_m.cold.1, symObjAddr: 0xAA08, symBinAddr: 0x6C6FC, symSize: 0x58 }
  - { offsetInCU: 0x456EA, offset: 0x342B9A, size: 0x8, addend: 0x0, symName: __ZN7aiutils10DeviceInfoC2ERKS0_.cold.1, symObjAddr: 0xAA60, symBinAddr: 0x6C754, symSize: 0x10 }
  - { offsetInCU: 0x45705, offset: 0x342BB5, size: 0x8, addend: 0x0, symName: __ZN7aiutils10DeviceInfoC2ERKS0_.cold.1, symObjAddr: 0xAA60, symBinAddr: 0x6C754, symSize: 0x10 }
  - { offsetInCU: 0x4571A, offset: 0x342BCA, size: 0x8, addend: 0x0, symName: __ZN7aiutils10DeviceInfoC2ERKS0_.cold.1, symObjAddr: 0xAA60, symBinAddr: 0x6C754, symSize: 0x10 }
  - { offsetInCU: 0x45731, offset: 0x342BE1, size: 0x8, addend: 0x0, symName: __ZN7aiutils10DeviceInfoC2ERKS0_.cold.1, symObjAddr: 0xAA60, symBinAddr: 0x6C754, symSize: 0x10 }
  - { offsetInCU: 0x45D6B, offset: 0x34321B, size: 0x8, addend: 0x0, symName: __ZNSt3__14pairIKNS_12basic_stringIcNS_11char_traitsIcEENS_9allocatorIcEEEEN7aiutils9CacheDataEEC2B8ue170006IJRS7_EJEJLm0EEJEEENS_21piecewise_construct_tERNS_5tupleIJDpT_EEERNSE_IJDpT0_EEENS_15__tuple_indicesIJXspT1_EEEENSN_IJXspT2_EEEE, symObjAddr: 0x88F8, symBinAddr: 0x647BC, symSize: 0x120 }
  - { offsetInCU: 0x46566, offset: 0x343A16, size: 0x8, addend: 0x0, symName: __ZN7aiutils12CacheManager6removeERKNSt3__112basic_stringIcNS1_11char_traitsIcEENS1_9allocatorIcEEEE, symObjAddr: 0x9008, symBinAddr: 0x64D18, symSize: 0x168 }
  - { offsetInCU: 0x46A1B, offset: 0x343ECB, size: 0x8, addend: 0x0, symName: __ZNSt3__16__treeINS_12__value_typeINS_12basic_stringIcNS_11char_traitsIcEENS_9allocatorIcEEEEN7aiutils9CacheDataEEENS_19__map_value_compareIS7_SA_NS_4lessIS7_EELb1EEENS5_ISA_EEE14__erase_uniqueIS7_EEmRKT_, symObjAddr: 0x9170, symBinAddr: 0x64E80, symSize: 0x134 }
  - { offsetInCU: 0x46DA6, offset: 0x344256, size: 0x8, addend: 0x0, symName: __ZNSt3__16__treeINS_12__value_typeINS_12basic_stringIcNS_11char_traitsIcEENS_9allocatorIcEEEEN7aiutils9CacheDataEEENS_19__map_value_compareIS7_SA_NS_4lessIS7_EELb1EEENS5_ISA_EEE5eraseENS_21__tree_const_iteratorISA_PNS_11__tree_nodeISA_PvEElEE, symObjAddr: 0x92A4, symBinAddr: 0x64FB4, symSize: 0xD4 }
  - { offsetInCU: 0x47AAD, offset: 0x344F5D, size: 0x8, addend: 0x0, symName: __ZNSt3__16vectorINS_12basic_stringIcNS_11char_traitsIcEENS_9allocatorIcEEEENS4_IS6_EEE18__construct_at_endIPS6_SA_EEvT_T0_m, symObjAddr: 0x9FB8, symBinAddr: 0x6513C, symSize: 0x144 }
  - { offsetInCU: 0x482F4, offset: 0x3457A4, size: 0x8, addend: 0x0, symName: __ZNSt3__16vectorINS_12basic_stringIcNS_11char_traitsIcEENS_9allocatorIcEEEENS4_IS6_EEEC2ERKS8_.cold.1, symObjAddr: 0xAA70, symBinAddr: 0x6C764, symSize: 0x64 }
  - { offsetInCU: 0x49086, offset: 0x346536, size: 0x8, addend: 0x0, symName: __ZNSt3__120__shared_ptr_emplaceINS_3mapINS_12basic_stringIcNS_11char_traitsIcEENS_9allocatorIcEEEENS_6vectorIhNS5_IhEEEENS_4lessIS7_EENS5_INS_4pairIKS7_SA_EEEEEENS5_ISH_EEED1Ev, symObjAddr: 0xA9AC, symBinAddr: 0x65578, symSize: 0x14 }
  - { offsetInCU: 0x490A9, offset: 0x346559, size: 0x8, addend: 0x0, symName: __ZNSt3__120__shared_ptr_emplaceINS_3mapINS_12basic_stringIcNS_11char_traitsIcEENS_9allocatorIcEEEENS_6vectorIhNS5_IhEEEENS_4lessIS7_EENS5_INS_4pairIKS7_SA_EEEEEENS5_ISH_EEED1Ev, symObjAddr: 0xA9AC, symBinAddr: 0x65578, symSize: 0x14 }
  - { offsetInCU: 0x490E3, offset: 0x346593, size: 0x8, addend: 0x0, symName: __ZNSt3__120__shared_ptr_emplaceINS_3mapINS_12basic_stringIcNS_11char_traitsIcEENS_9allocatorIcEEEENS_6vectorIhNS5_IhEEEENS_4lessIS7_EENS5_INS_4pairIKS7_SA_EEEEEENS5_ISH_EEED0Ev, symObjAddr: 0xA9C0, symBinAddr: 0x6558C, symSize: 0x24 }
  - { offsetInCU: 0x49163, offset: 0x346613, size: 0x8, addend: 0x0, symName: __ZNSt3__120__shared_ptr_emplaceINS_3mapINS_12basic_stringIcNS_11char_traitsIcEENS_9allocatorIcEEEENS_6vectorIhNS5_IhEEEENS_4lessIS7_EENS5_INS_4pairIKS7_SA_EEEEEENS5_ISH_EEE16__on_zero_sharedEv, symObjAddr: 0xA9E4, symBinAddr: 0x655B0, symSize: 0x10 }
  - { offsetInCU: 0x4918C, offset: 0x34663C, size: 0x8, addend: 0x0, symName: __ZNSt3__120__shared_ptr_emplaceINS_3mapINS_12basic_stringIcNS_11char_traitsIcEENS_9allocatorIcEEEENS_6vectorIhNS5_IhEEEENS_4lessIS7_EENS5_INS_4pairIKS7_SA_EEEEEENS5_ISH_EEE16__on_zero_sharedEv, symObjAddr: 0xA9E4, symBinAddr: 0x655B0, symSize: 0x10 }
  - { offsetInCU: 0x492AA, offset: 0x34675A, size: 0x8, addend: 0x0, symName: __ZNSt3__120__shared_ptr_emplaceINS_3mapINS_12basic_stringIcNS_11char_traitsIcEENS_9allocatorIcEEEENS_6vectorIhNS5_IhEEEENS_4lessIS7_EENS5_INS_4pairIKS7_SA_EEEEEENS5_ISH_EEE21__on_zero_shared_weakEv, symObjAddr: 0xA9F4, symBinAddr: 0x655C0, symSize: 0x4 }
  - { offsetInCU: 0x492DD, offset: 0x34678D, size: 0x8, addend: 0x0, symName: __ZNSt3__120__shared_ptr_emplaceINS_3mapINS_12basic_stringIcNS_11char_traitsIcEENS_9allocatorIcEEEENS_6vectorIhNS5_IhEEEENS_4lessIS7_EENS5_INS_4pairIKS7_SA_EEEEEENS5_ISH_EEE21__on_zero_shared_weakEv, symObjAddr: 0xA9F4, symBinAddr: 0x655C0, symSize: 0x4 }
  - { offsetInCU: 0x49302, offset: 0x3467B2, size: 0x8, addend: 0x0, symName: __ZNSt3__120__shared_ptr_emplaceINS_3mapINS_12basic_stringIcNS_11char_traitsIcEENS_9allocatorIcEEEENS_6vectorIhNS5_IhEEEENS_4lessIS7_EENS5_INS_4pairIKS7_SA_EEEEEENS5_ISH_EEE21__on_zero_shared_weakEv, symObjAddr: 0xA9F4, symBinAddr: 0x655C0, symSize: 0x4 }
  - { offsetInCU: 0x49327, offset: 0x3467D7, size: 0x8, addend: 0x0, symName: __ZNSt3__120__shared_ptr_emplaceINS_3mapINS_12basic_stringIcNS_11char_traitsIcEENS_9allocatorIcEEEENS_6vectorIhNS5_IhEEEENS_4lessIS7_EENS5_INS_4pairIKS7_SA_EEEEEENS5_ISH_EEE21__on_zero_shared_weakEv, symObjAddr: 0xA9F4, symBinAddr: 0x655C0, symSize: 0x4 }
  - { offsetInCU: 0x49357, offset: 0x346807, size: 0x8, addend: 0x0, symName: __ZNSt3__120__shared_ptr_emplaceINS_3mapINS_12basic_stringIcNS_11char_traitsIcEENS_9allocatorIcEEEENS_6vectorIhNS5_IhEEEENS_4lessIS7_EENS5_INS_4pairIKS7_SA_EEEEEENS5_ISH_EEE21__on_zero_shared_weakEv, symObjAddr: 0xA9F4, symBinAddr: 0x655C0, symSize: 0x4 }
  - { offsetInCU: 0x49381, offset: 0x346831, size: 0x8, addend: 0x0, symName: __ZNSt3__120__shared_ptr_emplaceINS_3mapINS_12basic_stringIcNS_11char_traitsIcEENS_9allocatorIcEEEENS_6vectorIhNS5_IhEEEENS_4lessIS7_EENS5_INS_4pairIKS7_SA_EEEEEENS5_ISH_EEE21__on_zero_shared_weakEv, symObjAddr: 0xA9F4, symBinAddr: 0x655C0, symSize: 0x4 }
  - { offsetInCU: 0x493AE, offset: 0x34685E, size: 0x8, addend: 0x0, symName: _OUTLINED_FUNCTION_0, symObjAddr: 0xAAD4, symBinAddr: 0x655C4, symSize: 0x8 }
  - { offsetInCU: 0x27, offset: 0x3468C4, size: 0x8, addend: 0x0, symName: __Z16mac_getCoreCountPU19objcproto9MTLDevice11objc_object, symObjAddr: 0x0, symBinAddr: 0x65638, symSize: 0x98 }
  - { offsetInCU: 0x41, offset: 0x3468DE, size: 0x8, addend: 0x0, symName: ___activity, symObjAddr: 0x78040, symBinAddr: 0x851E0, symSize: 0x0 }
  - { offsetInCU: 0x83, offset: 0x346920, size: 0x8, addend: 0x0, symName: ___appClosing, symObjAddr: 0x78048, symBinAddr: 0x851E8, symSize: 0x0 }
  - { offsetInCU: 0xBE65, offset: 0x352702, size: 0x8, addend: 0x0, symName: __Z16mac_getCoreCountPU19objcproto9MTLDevice11objc_object, symObjAddr: 0x0, symBinAddr: 0x65638, symSize: 0x98 }
  - { offsetInCU: 0xC598, offset: 0x352E35, size: 0x8, addend: 0x0, symName: __Z11mac_gpuListv, symObjAddr: 0x98, symBinAddr: 0x656D0, symSize: 0x410 }
  - { offsetInCU: 0xD805, offset: 0x3540A2, size: 0x8, addend: 0x0, symName: __Z11mac_versionv, symObjAddr: 0x4A8, symBinAddr: 0x65AE0, symSize: 0xC4 }
  - { offsetInCU: 0xE41E, offset: 0x354CBB, size: 0x8, addend: 0x0, symName: __Z15mac_appStartingv, symObjAddr: 0x658, symBinAddr: 0x65BA4, symSize: 0x7C }
  - { offsetInCU: 0xE449, offset: 0x354CE6, size: 0x8, addend: 0x0, symName: __Z14mac_appClosingv, symObjAddr: 0x6D4, symBinAddr: 0x65C20, symSize: 0x60 }
  - { offsetInCU: 0xE463, offset: 0x354D00, size: 0x8, addend: 0x0, symName: __Z19mac_isAppTranslatedv, symObjAddr: 0x734, symBinAddr: 0x65C80, symSize: 0x50 }
  - { offsetInCU: 0xE4F2, offset: 0x354D8F, size: 0x8, addend: 0x0, symName: __Z13mac_machineIdv, symObjAddr: 0x784, symBinAddr: 0x65CD0, symSize: 0x108 }
  - { offsetInCU: 0xE92E, offset: 0x3551CB, size: 0x8, addend: 0x0, symName: __Z18mac_isLowPowerModev, symObjAddr: 0x88C, symBinAddr: 0x65DD8, symSize: 0x84 }
  - { offsetInCU: 0xE970, offset: 0x35520D, size: 0x8, addend: 0x0, symName: __Z18mac_isLowPowerModev, symObjAddr: 0x88C, symBinAddr: 0x65DD8, symSize: 0x84 }
  - { offsetInCU: 0xED49, offset: 0x3555E6, size: 0x8, addend: 0x0, symName: __ZNSt3__16vectorIN7aiutils10DeviceInfoENS_9allocatorIS2_EEE21__push_back_slow_pathIRKS2_EEvOT_.cold.1, symObjAddr: 0xCEC, symBinAddr: 0x6C7C8, symSize: 0x4C }
  - { offsetInCU: 0xED54, offset: 0x3555F1, size: 0x8, addend: 0x0, symName: __ZNSt3__16vectorIN7aiutils10DeviceInfoENS_9allocatorIS2_EEE21__push_back_slow_pathIRKS2_EEvOT_.cold.1, symObjAddr: 0xCEC, symBinAddr: 0x6C7C8, symSize: 0x4C }
  - { offsetInCU: 0xF225, offset: 0x355AC2, size: 0x8, addend: 0x0, symName: __ZN7aiutils10DeviceInfoC2ERKS0_.cold.1, symObjAddr: 0xD38, symBinAddr: 0x6C814, symSize: 0x14 }
  - { offsetInCU: 0xF241, offset: 0x355ADE, size: 0x8, addend: 0x0, symName: __ZN7aiutils10DeviceInfoC2ERKS0_.cold.1, symObjAddr: 0xD38, symBinAddr: 0x6C814, symSize: 0x14 }
  - { offsetInCU: 0xF256, offset: 0x355AF3, size: 0x8, addend: 0x0, symName: __ZN7aiutils10DeviceInfoC2ERKS0_.cold.1, symObjAddr: 0xD38, symBinAddr: 0x6C814, symSize: 0x14 }
  - { offsetInCU: 0xF26C, offset: 0x355B09, size: 0x8, addend: 0x0, symName: __ZN7aiutils10DeviceInfoC2ERKS0_.cold.1, symObjAddr: 0xD38, symBinAddr: 0x6C814, symSize: 0x14 }
  - { offsetInCU: 0x27, offset: 0x355C72, size: 0x8, addend: 0x0, symName: '-[CMModel init]', symObjAddr: 0x0, symBinAddr: 0x65E5C, symSize: 0x8C }
  - { offsetInCU: 0x41, offset: 0x355C8C, size: 0x8, addend: 0x0, symName: ___index, symObjAddr: 0x6527C, symBinAddr: 0x851EC, symSize: 0x0 }
  - { offsetInCU: 0xA29A, offset: 0x35FEE5, size: 0x8, addend: 0x0, symName: '-[CMModel init]', symObjAddr: 0x0, symBinAddr: 0x65E5C, symSize: 0x8C }
  - { offsetInCU: 0xA2D1, offset: 0x35FF1C, size: 0x8, addend: 0x0, symName: '-[CMModel loadFromCompiledPath:toDevice:]', symObjAddr: 0x8C, symBinAddr: 0x65EE8, symSize: 0x3A4 }
  - { offsetInCU: 0xA3A6, offset: 0x35FFF1, size: 0x8, addend: 0x0, symName: '-[CMModel getVersionForModel]', symObjAddr: 0x430, symBinAddr: 0x6628C, symSize: 0x1F4 }
  - { offsetInCU: 0xA42B, offset: 0x360076, size: 0x8, addend: 0x0, symName: '-[CMModel compileModel:]', symObjAddr: 0x624, symBinAddr: 0x66480, symSize: 0x12C }
  - { offsetInCU: 0xA4B0, offset: 0x3600FB, size: 0x8, addend: 0x0, symName: '-[CMModel runModel:]', symObjAddr: 0x750, symBinAddr: 0x665AC, symSize: 0x264 }
  - { offsetInCU: 0xA563, offset: 0x3601AE, size: 0x8, addend: 0x0, symName: '-[CMModel isLoaded]', symObjAddr: 0x9B4, symBinAddr: 0x66810, symSize: 0x10 }
  - { offsetInCU: 0xA59A, offset: 0x3601E5, size: 0x8, addend: 0x0, symName: '-[CMModel printDescription]', symObjAddr: 0x9C4, symBinAddr: 0x66820, symSize: 0x5C }
  - { offsetInCU: 0xA5DB, offset: 0x360226, size: 0x8, addend: 0x0, symName: '-[CMModel deleteModelCache:]', symObjAddr: 0xA20, symBinAddr: 0x6687C, symSize: 0xE4 }
  - { offsetInCU: 0xA656, offset: 0x3602A1, size: 0x8, addend: 0x0, symName: '-[CMModel dummyProc]', symObjAddr: 0xB04, symBinAddr: 0x66960, symSize: 0x440 }
  - { offsetInCU: 0xA76A, offset: 0x3603B5, size: 0x8, addend: 0x0, symName: '___20-[CMModel dummyProc]_block_invoke', symObjAddr: 0xF44, symBinAddr: 0x66DA0, symSize: 0x8 }
  - { offsetInCU: 0xA7A1, offset: 0x3603EC, size: 0x8, addend: 0x0, symName: '-[CMModel dealloc]', symObjAddr: 0xF4C, symBinAddr: 0x66DA8, symSize: 0x34 }
  - { offsetInCU: 0xA7D4, offset: 0x36041F, size: 0x8, addend: 0x0, symName: '-[CMModel compiledPath]', symObjAddr: 0xF80, symBinAddr: 0x66DDC, symSize: 0x8 }
  - { offsetInCU: 0xA80B, offset: 0x360456, size: 0x8, addend: 0x0, symName: '-[CMModel setCompiledPath:]', symObjAddr: 0xF88, symBinAddr: 0x66DE4, symSize: 0xC }
  - { offsetInCU: 0xA84C, offset: 0x360497, size: 0x8, addend: 0x0, symName: '-[CMModel modelVersion]', symObjAddr: 0xF94, symBinAddr: 0x66DF0, symSize: 0x8 }
  - { offsetInCU: 0xA883, offset: 0x3604CE, size: 0x8, addend: 0x0, symName: '-[CMModel postFix]', symObjAddr: 0xF9C, symBinAddr: 0x66DF8, symSize: 0xC }
  - { offsetInCU: 0xA8BA, offset: 0x360505, size: 0x8, addend: 0x0, symName: '-[CMModel .cxx_destruct]', symObjAddr: 0xFA8, symBinAddr: 0x66E04, symSize: 0x3C }
  - { offsetInCU: 0x37CCA, offset: 0x398484, size: 0x8, addend: 0x0, symName: __ZNSt3__124uniform_int_distributionIlEclINS_23mersenne_twister_engineIjLm32ELm624ELm397ELm31ELj2567483615ELm11ELj4294967295ELm7ELj2636928640ELm15ELj4022730752ELm18ELj1812433253EEEEElRT_RKNS1_10param_typeE, symObjAddr: 0x386C, symBinAddr: 0x69FF0, symSize: 0x188 }
  - { offsetInCU: 0x3B8A2, offset: 0x39C05C, size: 0x8, addend: 0x0, symName: __ZN8aiengine9CMBackendD2Ev, symObjAddr: 0x0, symBinAddr: 0x66E40, symSize: 0x60 }
  - { offsetInCU: 0x3BD34, offset: 0x39C4EE, size: 0x8, addend: 0x0, symName: __ZN8aiengine9CMBackendD1Ev, symObjAddr: 0x60, symBinAddr: 0x66EA0, symSize: 0x60 }
  - { offsetInCU: 0x3BF95, offset: 0x39C74F, size: 0x8, addend: 0x0, symName: __ZN8aiengine9CMBackendD0Ev, symObjAddr: 0xC0, symBinAddr: 0x66F00, symSize: 0x60 }
  - { offsetInCU: 0x3C202, offset: 0x39C9BC, size: 0x8, addend: 0x0, symName: __ZN8aiengine9CMBackend11createModelEv, symObjAddr: 0x120, symBinAddr: 0x66F60, symSize: 0x44 }
  - { offsetInCU: 0x3C3F5, offset: 0x39CBAF, size: 0x8, addend: 0x0, symName: __ZN8aiengine9CMBackend5cloneEi, symObjAddr: 0x164, symBinAddr: 0x66FA4, symSize: 0xE8 }
  - { offsetInCU: 0x3C914, offset: 0x39D0CE, size: 0x8, addend: 0x0, symName: __ZN8aiengine9CMBackend4loadERNSt3__13mapINS1_12basic_stringIcNS1_11char_traitsIcEENS1_9allocatorIcEEEENS1_6vectorIhNS6_IhEEEENS1_4lessIS8_EENS6_INS1_4pairIKS8_SB_EEEEEE, symObjAddr: 0x24C, symBinAddr: 0x6708C, symSize: 0x290 }
  - { offsetInCU: 0x3D776, offset: 0x39DF30, size: 0x8, addend: 0x0, symName: __ZN7aiutils13TemporaryFileC2ENSt3__112basic_stringIcNS1_11char_traitsIcEENS1_9allocatorIcEEEE, symObjAddr: 0x3204, symBinAddr: 0x69988, symSize: 0x424 }
  - { offsetInCU: 0x3F693, offset: 0x39FE4D, size: 0x8, addend: 0x0, symName: __ZN7aiutils13TemporaryFile11getTempPathEv, symObjAddr: 0x57C, symBinAddr: 0x6731C, symSize: 0xE8 }
  - { offsetInCU: 0x3FD71, offset: 0x3A052B, size: 0x8, addend: 0x0, symName: __ZN8aiengine9CMBackend15getCompiledPathEv, symObjAddr: 0x664, symBinAddr: 0x67404, symSize: 0x104 }
  - { offsetInCU: 0x40188, offset: 0x3A0942, size: 0x8, addend: 0x0, symName: __ZN7aiutils13TemporaryFileD1Ev, symObjAddr: 0x768, symBinAddr: 0x67508, symSize: 0xB8 }
  - { offsetInCU: 0x40736, offset: 0x3A0EF0, size: 0x8, addend: 0x0, symName: __ZN7aiutils13TemporaryFile11getTempPathEv, symObjAddr: 0x57C, symBinAddr: 0x6731C, symSize: 0xE8 }
  - { offsetInCU: 0x40A4D, offset: 0x3A1207, size: 0x8, addend: 0x0, symName: __Z18extractPackagePathNSt3__16vectorINS_12basic_stringIcNS_11char_traitsIcEENS_9allocatorIcEEEENS4_IS6_EEEE, symObjAddr: 0x820, symBinAddr: 0x675C0, symSize: 0x1CC }
  - { offsetInCU: 0x41BA5, offset: 0x3A235F, size: 0x8, addend: 0x0, symName: __ZN8aiengine9CMBackend12loadFromFileENSt3__112basic_stringIcNS1_11char_traitsIcEENS1_9allocatorIcEEEES7_, symObjAddr: 0x9EC, symBinAddr: 0x6778C, symSize: 0x19EC }
  - { offsetInCU: 0x4D76E, offset: 0x3ADF28, size: 0x8, addend: 0x0, symName: __ZN8aiengine9CMBackend17cacheCompiledFileENSt3__112basic_stringIcNS1_11char_traitsIcEENS1_9allocatorIcEEEE, symObjAddr: 0x244C, symBinAddr: 0x69178, symSize: 0x3A4 }
  - { offsetInCU: 0x4E1BC, offset: 0x3AE976, size: 0x8, addend: 0x0, symName: __ZN8aiengine9CMBackend8isLoadedEv, symObjAddr: 0x27F0, symBinAddr: 0x6951C, symSize: 0x3C }
  - { offsetInCU: 0x4E1E5, offset: 0x3AE99F, size: 0x8, addend: 0x0, symName: __ZN8aiengine9CMBackend16printDescriptionEv, symObjAddr: 0x282C, symBinAddr: 0x69558, symSize: 0x30 }
  - { offsetInCU: 0x4E20E, offset: 0x3AE9C8, size: 0x8, addend: 0x0, symName: __ZN8aiengine9CMBackend20loadFromCompiledFileENSt3__112basic_stringIcNS1_11char_traitsIcEENS1_9allocatorIcEEEE, symObjAddr: 0x285C, symBinAddr: 0x69588, symSize: 0x12C }
  - { offsetInCU: 0x4E867, offset: 0x3AF021, size: 0x8, addend: 0x0, symName: __ZN8aiengine9CMBackend7processENSt3__110shared_ptrINS_10ModelInputEEE, symObjAddr: 0x2988, symBinAddr: 0x696B4, symSize: 0x1CC }
  - { offsetInCU: 0x4ECE8, offset: 0x3AF4A2, size: 0x8, addend: 0x0, symName: __ZNSt3__110shared_ptrIN8aiengine7CMInputEED1B8ue170006Ev, symObjAddr: 0x2B54, symBinAddr: 0x69880, symSize: 0x60 }
  - { offsetInCU: 0x4F052, offset: 0x3AF80C, size: 0x8, addend: 0x0, symName: __ZN8aiengine9CMBackend11createInputEj, symObjAddr: 0x2BB4, symBinAddr: 0x698E0, symSize: 0xA0 }
  - { offsetInCU: 0x4F1D9, offset: 0x3AF993, size: 0x8, addend: 0x0, symName: __ZN8aiengine9CMBackend9dummyProcEv, symObjAddr: 0x2C54, symBinAddr: 0x69980, symSize: 0x8 }
  - { offsetInCU: 0x5391C, offset: 0x3B40D6, size: 0x8, addend: 0x0, symName: __ZN7aiutils13TemporaryFile14randomFilenameEv, symObjAddr: 0x3628, symBinAddr: 0x69DAC, symSize: 0x1A0 }
  - { offsetInCU: 0x54AEF, offset: 0x3B52A9, size: 0x8, addend: 0x0, symName: __ZN7aiutils13TemporaryFileD0Ev, symObjAddr: 0x37C8, symBinAddr: 0x69F4C, symSize: 0xA4 }
  - { offsetInCU: 0x54DFE, offset: 0x3B55B8, size: 0x8, addend: 0x0, symName: __ZNSt3__125__independent_bits_engineINS_23mersenne_twister_engineIjLm32ELm624ELm397ELm31ELj2567483615ELm11ELj4294967295ELm7ELj2636928640ELm15ELj4022730752ELm18ELj1812433253EEEmE6__evalENS_17integral_constantIbLb1EEE, symObjAddr: 0x39F4, symBinAddr: 0x6A178, symSize: 0x1E8 }
  - { offsetInCU: 0x5B927, offset: 0x3BC0E1, size: 0x8, addend: 0x0, symName: __ZNSt3__16vectorINS_12basic_stringIcNS_11char_traitsIcEENS_9allocatorIcEEEENS4_IS6_EEEC2ERKS8_.cold.1, symObjAddr: 0x7C44, symBinAddr: 0x6C828, symSize: 0x64 }
  - { offsetInCU: 0x5BFF4, offset: 0x3BC7AE, size: 0x8, addend: 0x0, symName: __ZNSt3__120__shared_ptr_pointerIPN8aiengine8CMOutputENS_10shared_ptrINS1_11ModelOutputEE27__shared_ptr_default_deleteIS5_S2_EENS_9allocatorIS2_EEED1Ev, symObjAddr: 0x7AF4, symBinAddr: 0x6A360, symSize: 0x4 }
  - { offsetInCU: 0x5C017, offset: 0x3BC7D1, size: 0x8, addend: 0x0, symName: __ZNSt3__120__shared_ptr_pointerIPN8aiengine8CMOutputENS_10shared_ptrINS1_11ModelOutputEE27__shared_ptr_default_deleteIS5_S2_EENS_9allocatorIS2_EEED1Ev, symObjAddr: 0x7AF4, symBinAddr: 0x6A360, symSize: 0x4 }
  - { offsetInCU: 0x5C04F, offset: 0x3BC809, size: 0x8, addend: 0x0, symName: __ZNSt3__120__shared_ptr_pointerIPN8aiengine8CMOutputENS_10shared_ptrINS1_11ModelOutputEE27__shared_ptr_default_deleteIS5_S2_EENS_9allocatorIS2_EEED0Ev, symObjAddr: 0x7AF8, symBinAddr: 0x6A364, symSize: 0x14 }
  - { offsetInCU: 0x5C0B6, offset: 0x3BC870, size: 0x8, addend: 0x0, symName: __ZNSt3__120__shared_ptr_pointerIPN8aiengine8CMOutputENS_10shared_ptrINS1_11ModelOutputEE27__shared_ptr_default_deleteIS5_S2_EENS_9allocatorIS2_EEE16__on_zero_sharedEv, symObjAddr: 0x7B0C, symBinAddr: 0x6A378, symSize: 0x18 }
  - { offsetInCU: 0x5C164, offset: 0x3BC91E, size: 0x8, addend: 0x0, symName: __ZNKSt3__120__shared_ptr_pointerIPN8aiengine8CMOutputENS_10shared_ptrINS1_11ModelOutputEE27__shared_ptr_default_deleteIS5_S2_EENS_9allocatorIS2_EEE13__get_deleterERKSt9type_info, symObjAddr: 0x7B24, symBinAddr: 0x6A390, symSize: 0x74 }
  - { offsetInCU: 0x5C241, offset: 0x3BC9FB, size: 0x8, addend: 0x0, symName: __ZNSt3__120__shared_ptr_pointerIPN8aiengine8CMOutputENS_10shared_ptrINS1_11ModelOutputEE27__shared_ptr_default_deleteIS5_S2_EENS_9allocatorIS2_EEE21__on_zero_shared_weakEv, symObjAddr: 0x7B98, symBinAddr: 0x6A404, symSize: 0x4 }
  - { offsetInCU: 0x5C276, offset: 0x3BCA30, size: 0x8, addend: 0x0, symName: __ZNSt3__120__shared_ptr_pointerIPN8aiengine8CMOutputENS_10shared_ptrINS1_11ModelOutputEE27__shared_ptr_default_deleteIS5_S2_EENS_9allocatorIS2_EEE21__on_zero_shared_weakEv, symObjAddr: 0x7B98, symBinAddr: 0x6A404, symSize: 0x4 }
  - { offsetInCU: 0x5C29B, offset: 0x3BCA55, size: 0x8, addend: 0x0, symName: __ZNSt3__120__shared_ptr_pointerIPN8aiengine8CMOutputENS_10shared_ptrINS1_11ModelOutputEE27__shared_ptr_default_deleteIS5_S2_EENS_9allocatorIS2_EEE21__on_zero_shared_weakEv, symObjAddr: 0x7B98, symBinAddr: 0x6A404, symSize: 0x4 }
  - { offsetInCU: 0x5C2CA, offset: 0x3BCA84, size: 0x8, addend: 0x0, symName: __ZNSt3__120__shared_ptr_pointerIPN8aiengine8CMOutputENS_10shared_ptrINS1_11ModelOutputEE27__shared_ptr_default_deleteIS5_S2_EENS_9allocatorIS2_EEE21__on_zero_shared_weakEv, symObjAddr: 0x7B98, symBinAddr: 0x6A404, symSize: 0x4 }
  - { offsetInCU: 0x5C2F3, offset: 0x3BCAAD, size: 0x8, addend: 0x0, symName: __ZNSt3__120__shared_ptr_pointerIPN8aiengine8CMOutputENS_10shared_ptrINS1_11ModelOutputEE27__shared_ptr_default_deleteIS5_S2_EENS_9allocatorIS2_EEE21__on_zero_shared_weakEv, symObjAddr: 0x7B98, symBinAddr: 0x6A404, symSize: 0x4 }
  - { offsetInCU: 0x5C33B, offset: 0x3BCAF5, size: 0x8, addend: 0x0, symName: __ZNSt3__120__shared_ptr_pointerIPN8aiengine7CMInputENS_10shared_ptrINS1_10ModelInputEE27__shared_ptr_default_deleteIS5_S2_EENS_9allocatorIS2_EEED1Ev, symObjAddr: 0x7B9C, symBinAddr: 0x6A408, symSize: 0x4 }
  - { offsetInCU: 0x5C35E, offset: 0x3BCB18, size: 0x8, addend: 0x0, symName: __ZNSt3__120__shared_ptr_pointerIPN8aiengine7CMInputENS_10shared_ptrINS1_10ModelInputEE27__shared_ptr_default_deleteIS5_S2_EENS_9allocatorIS2_EEED1Ev, symObjAddr: 0x7B9C, symBinAddr: 0x6A408, symSize: 0x4 }
  - { offsetInCU: 0x5C396, offset: 0x3BCB50, size: 0x8, addend: 0x0, symName: __ZNSt3__120__shared_ptr_pointerIPN8aiengine7CMInputENS_10shared_ptrINS1_10ModelInputEE27__shared_ptr_default_deleteIS5_S2_EENS_9allocatorIS2_EEED0Ev, symObjAddr: 0x7BA0, symBinAddr: 0x6A40C, symSize: 0x14 }
  - { offsetInCU: 0x5C3FD, offset: 0x3BCBB7, size: 0x8, addend: 0x0, symName: __ZNSt3__120__shared_ptr_pointerIPN8aiengine7CMInputENS_10shared_ptrINS1_10ModelInputEE27__shared_ptr_default_deleteIS5_S2_EENS_9allocatorIS2_EEE16__on_zero_sharedEv, symObjAddr: 0x7BB4, symBinAddr: 0x6A420, symSize: 0x18 }
  - { offsetInCU: 0x5C451, offset: 0x3BCC0B, size: 0x8, addend: 0x0, symName: __ZNKSt3__120__shared_ptr_pointerIPN8aiengine7CMInputENS_10shared_ptrINS1_10ModelInputEE27__shared_ptr_default_deleteIS5_S2_EENS_9allocatorIS2_EEE13__get_deleterERKSt9type_info, symObjAddr: 0x7BCC, symBinAddr: 0x6A438, symSize: 0x74 }
  - { offsetInCU: 0x5C52E, offset: 0x3BCCE8, size: 0x8, addend: 0x0, symName: __ZNSt3__120__shared_ptr_pointerIPN8aiengine7CMInputENS_10shared_ptrINS1_10ModelInputEE27__shared_ptr_default_deleteIS5_S2_EENS_9allocatorIS2_EEE21__on_zero_shared_weakEv, symObjAddr: 0x7C40, symBinAddr: 0x6A4AC, symSize: 0x4 }
  - { offsetInCU: 0x5C563, offset: 0x3BCD1D, size: 0x8, addend: 0x0, symName: __ZNSt3__120__shared_ptr_pointerIPN8aiengine7CMInputENS_10shared_ptrINS1_10ModelInputEE27__shared_ptr_default_deleteIS5_S2_EENS_9allocatorIS2_EEE21__on_zero_shared_weakEv, symObjAddr: 0x7C40, symBinAddr: 0x6A4AC, symSize: 0x4 }
  - { offsetInCU: 0x5C588, offset: 0x3BCD42, size: 0x8, addend: 0x0, symName: __ZNSt3__120__shared_ptr_pointerIPN8aiengine7CMInputENS_10shared_ptrINS1_10ModelInputEE27__shared_ptr_default_deleteIS5_S2_EENS_9allocatorIS2_EEE21__on_zero_shared_weakEv, symObjAddr: 0x7C40, symBinAddr: 0x6A4AC, symSize: 0x4 }
  - { offsetInCU: 0x5C5B7, offset: 0x3BCD71, size: 0x8, addend: 0x0, symName: __ZNSt3__120__shared_ptr_pointerIPN8aiengine7CMInputENS_10shared_ptrINS1_10ModelInputEE27__shared_ptr_default_deleteIS5_S2_EENS_9allocatorIS2_EEE21__on_zero_shared_weakEv, symObjAddr: 0x7C40, symBinAddr: 0x6A4AC, symSize: 0x4 }
  - { offsetInCU: 0x5C5E0, offset: 0x3BCD9A, size: 0x8, addend: 0x0, symName: __ZNSt3__120__shared_ptr_pointerIPN8aiengine7CMInputENS_10shared_ptrINS1_10ModelInputEE27__shared_ptr_default_deleteIS5_S2_EENS_9allocatorIS2_EEE21__on_zero_shared_weakEv, symObjAddr: 0x7C40, symBinAddr: 0x6A4AC, symSize: 0x4 }
  - { offsetInCU: 0x27, offset: 0x3BCE3B, size: 0x8, addend: 0x0, symName: __ZN8aiengine7CMInputC2Ejb, symObjAddr: 0x0, symBinAddr: 0x6A4B0, symSize: 0xB8 }
  - { offsetInCU: 0x10D7D, offset: 0x3CDB91, size: 0x8, addend: 0x0, symName: __ZN8aiengine7CMInputC2Ejb, symObjAddr: 0x0, symBinAddr: 0x6A4B0, symSize: 0xB8 }
  - { offsetInCU: 0x10FFB, offset: 0x3CDE0F, size: 0x8, addend: 0x0, symName: __ZN8aiengine18BufferedModelInputD2Ev, symObjAddr: 0xB8, symBinAddr: 0x6A568, symSize: 0xA8 }
  - { offsetInCU: 0x11AD7, offset: 0x3CE8EB, size: 0x8, addend: 0x0, symName: __ZN8aiengine7CMInputC1Ejb, symObjAddr: 0x160, symBinAddr: 0x6A610, symSize: 0x4 }
  - { offsetInCU: 0x11B26, offset: 0x3CE93A, size: 0x8, addend: 0x0, symName: __ZN8aiengine7CMInputC1Ejb, symObjAddr: 0x160, symBinAddr: 0x6A610, symSize: 0x4 }
  - { offsetInCU: 0x11BF2, offset: 0x3CEA06, size: 0x8, addend: 0x0, symName: __ZN8aiengine7CMInput8setImageERKNSt3__112basic_stringIcNS1_11char_traitsIcEENS1_9allocatorIcEEEERKN2cv3MatE, symObjAddr: 0x164, symBinAddr: 0x6A614, symSize: 0x3CC }
  - { offsetInCU: 0x1203E, offset: 0x3CEE52, size: 0x8, addend: 0x0, symName: ____ZN8aiengine7CMInput8setImageERKNSt3__112basic_stringIcNS1_11char_traitsIcEENS1_9allocatorIcEEEERKN2cv3MatE_block_invoke, symObjAddr: 0x57C, symBinAddr: 0x6A9E0, symSize: 0x4 }
  - { offsetInCU: 0x120BD, offset: 0x3CEED1, size: 0x8, addend: 0x0, symName: __ZN8aiengine7CMInput8setValueERKNSt3__112basic_stringIcNS1_11char_traitsIcEENS1_9allocatorIcEEEEf, symObjAddr: 0x580, symBinAddr: 0x6A9E4, symSize: 0x1E0 }
  - { offsetInCU: 0x12815, offset: 0x3CF629, size: 0x8, addend: 0x0, symName: __ZN8aiengine7CMInput3logEv, symObjAddr: 0x7A4, symBinAddr: 0x6ABC4, symSize: 0x4 }
  - { offsetInCU: 0x1288D, offset: 0x3CF6A1, size: 0x8, addend: 0x0, symName: __ZN8aiengine7CMInput5clearEv, symObjAddr: 0x7A8, symBinAddr: 0x6ABC8, symSize: 0x5C }
  - { offsetInCU: 0x12CD7, offset: 0x3CFAEB, size: 0x8, addend: 0x0, symName: __ZN8aiengine7CMInputD1Ev, symObjAddr: 0xAE4, symBinAddr: 0x6AC24, symSize: 0x4 }
  - { offsetInCU: 0x12CFB, offset: 0x3CFB0F, size: 0x8, addend: 0x0, symName: __ZN8aiengine7CMInputD1Ev, symObjAddr: 0xAE4, symBinAddr: 0x6AC24, symSize: 0x4 }
  - { offsetInCU: 0x12D0E, offset: 0x3CFB22, size: 0x8, addend: 0x0, symName: __ZN8aiengine7CMInputD2Ev, symObjAddr: 0x1BE4, symBinAddr: 0x6AD10, symSize: 0xBC }
  - { offsetInCU: 0x131D0, offset: 0x3CFFE4, size: 0x8, addend: 0x0, symName: __ZN8aiengine7CMInputD0Ev, symObjAddr: 0xAE8, symBinAddr: 0x6AC28, symSize: 0x14 }
  - { offsetInCU: 0x1325F, offset: 0x3D0073, size: 0x8, addend: 0x0, symName: __ZN8aiengine7CMInput19setOutputLayerNamesERKNSt3__16vectorINS1_12basic_stringIcNS1_11char_traitsIcEENS1_9allocatorIcEEEENS6_IS8_EEEE, symObjAddr: 0xC20, symBinAddr: 0x6AC3C, symSize: 0xD4 }
  - { offsetInCU: 0x11D88, offset: 0x3E3DE9, size: 0x8, addend: 0x0, symName: __Z11stridedCopyP11objc_objectN2cv3MatENSt3__16vectorIlNS3_9allocatorIlEEEE, symObjAddr: 0x0, symBinAddr: 0x6ADCC, symSize: 0x12C }
  - { offsetInCU: 0x124E1, offset: 0x3E4542, size: 0x8, addend: 0x0, symName: __ZN8aiengine8CMOutput13prepareOutputEv, symObjAddr: 0x12C, symBinAddr: 0x6AEF8, symSize: 0x7BC }
  - { offsetInCU: 0x1331B, offset: 0x3E537C, size: 0x8, addend: 0x0, symName: __ZNSt3__16vectorIN2cv3MatENS_9allocatorIS2_EEE21__push_back_slow_pathIRKS2_EEvOT_, symObjAddr: 0x200C, symBinAddr: 0x6BA90, symSize: 0x1A8 }
  - { offsetInCU: 0x13C27, offset: 0x3E5C88, size: 0x8, addend: 0x0, symName: __ZN8aiengine11ModelOutput13makeOutputMatERNSt3__16vectorIxNS1_9allocatorIxEEEEi, symObjAddr: 0x8E8, symBinAddr: 0x6B6B4, symSize: 0x140 }
  - { offsetInCU: 0x13C9C, offset: 0x3E5CFD, size: 0x8, addend: 0x0, symName: __ZN8aiengine11ModelOutput10getResultsEv, symObjAddr: 0xA28, symBinAddr: 0x6B7F4, symSize: 0x8 }
  - { offsetInCU: 0x13CE7, offset: 0x3E5D48, size: 0x8, addend: 0x0, symName: __ZN8aiengine11ModelOutput9getResultEj, symObjAddr: 0xA30, symBinAddr: 0x6B7FC, symSize: 0x3C }
  - { offsetInCU: 0x13D72, offset: 0x3E5DD3, size: 0x8, addend: 0x0, symName: __ZN8aiengine11ModelOutput10hasResultsEv, symObjAddr: 0xA6C, symBinAddr: 0x6B838, symSize: 0x10 }
  - { offsetInCU: 0x13D9B, offset: 0x3E5DFC, size: 0x8, addend: 0x0, symName: __ZN8aiengine11ModelOutput10hasResultsEv, symObjAddr: 0xA6C, symBinAddr: 0x6B838, symSize: 0x10 }
  - { offsetInCU: 0x13F5B, offset: 0x3E5FBC, size: 0x8, addend: 0x0, symName: __ZN8aiengine8CMOutputD1Ev, symObjAddr: 0xA7C, symBinAddr: 0x6B848, symSize: 0x98 }
  - { offsetInCU: 0x14285, offset: 0x3E62E6, size: 0x8, addend: 0x0, symName: __ZN8aiengine8CMOutputD0Ev, symObjAddr: 0xB14, symBinAddr: 0x6B8E0, symSize: 0x98 }
  - { offsetInCU: 0x14D4C, offset: 0x3E6DAD, size: 0x8, addend: 0x0, symName: __ZN8aiengine11ModelOutput13prepareOutputEv, symObjAddr: 0x1EF4, symBinAddr: 0x6B978, symSize: 0x8 }
  - { offsetInCU: 0x15465, offset: 0x3E74C6, size: 0x8, addend: 0x0, symName: __ZN8aiengine11ModelOutput13prepareOutputEv, symObjAddr: 0x1EF4, symBinAddr: 0x6B978, symSize: 0x8 }
  - { offsetInCU: 0x1548C, offset: 0x3E74ED, size: 0x8, addend: 0x0, symName: __ZN8aiengine11ModelOutputD1Ev, symObjAddr: 0x1EFC, symBinAddr: 0x6B980, symSize: 0x88 }
  - { offsetInCU: 0x1579E, offset: 0x3E77FF, size: 0x8, addend: 0x0, symName: __ZN8aiengine11ModelOutputD0Ev, symObjAddr: 0x1F84, symBinAddr: 0x6BA08, symSize: 0x88 }
  - { offsetInCU: 0x15DB6, offset: 0x3E7E17, size: 0x8, addend: 0x0, symName: __ZNKSt3__16vectorIN2cv3MatENS_9allocatorIS2_EEE20__throw_length_errorB8ue170006Ev, symObjAddr: 0x2204, symBinAddr: 0x6BC88, symSize: 0x14 }
  - { offsetInCU: 0x15DEB, offset: 0x3E7E4C, size: 0x8, addend: 0x0, symName: __ZNSt3__114__split_bufferIN2cv3MatERNS_9allocatorIS2_EEED1Ev, symObjAddr: 0x21B4, symBinAddr: 0x6BC38, symSize: 0x50 }
...
